MPASM  5.45                               A.S   8-25-2012  19:59:32         PAGE  1


LOC  OBJECT CODE     LINE SOURCE TEXT
  VALUE


                      00002         list
                      00003 ;{
                      00004 ;FILE F1 = C:\TRANSPONDER\4550.BAS
                      00005 ;FILE F2 = C:\TRANSPONDER\4550.PRP
                      00006 ;}
                      00007 ;[Variable Listing]
                      00008 ;DataIn,0005,DT_BYTE,30
                      00009 ;I,0023,DT_BYTE,1
                      00010 ;T,0024,DT_BYTE,1
                      00011 ;_High__Context_Store,0025,DT_BYTE,3
                      00012 ;SMP,0FC7.7,DT_BIT
                      00013 ;CKE,0FC7.6,DT_BIT
                      00014 ;DATA_ADDR,0FC7.5,DT_BIT
                      00015 ;P,0FC7.4,DT_BIT
                      00016 ;S,0FC7.3,DT_BIT
                      00017 ;R_W,0FC7.2,DT_BIT
                      00018 ;UA,0FC7.1,DT_BIT
                      00019 ;BF,0FC7.0,DT_BIT
                      00020 ;S_GCEN,0FC5.7,DT_BIT
                      00021 ;S_ACKSTAT,0FC5.6,DT_BIT
                      00022 ;S_ACKDT,0FC5.5,DT_BIT
                      00023 ;S_ACKEN,0FC5.4,DT_BIT
                      00024 ;S_RCEN,0FC5.3,DT_BIT
                      00025 ;S_PEN,0FC5.2,DT_BIT
                      00026 ;S_RSEN,0FC5.1,DT_BIT
                      00027 ;S_SEN,0FC5.0,DT_BIT
                      00028 ;SSPIF,0F9E.3,DT_BIT
                      00029 ;SSPIE,0F9D.3,DT_BIT
                      00030 ;GIE_GIEH,0FF2.7,DT_BIT
                      00031 ;PEIE_GIEL,0FF2.6,DT_BIT
                      00032 ;[End Listing]
                      00033 ;[TOTAL VARS] 39

MESSAGE[308]: WARNING LEVEL SUPERSEDED BY COMMAND LINE VALUE. (2)
                      00035  LIST  P = 18F4550, F = INHX32, W = 2, X = ON, R = DEC, MM = ON, N = 0, C = 255, T=ON
  00000F62            00036 SPPDATA equ 0X0F62
  00000F63            00037 SPPCFG equ 0X0F63
  00000F64            00038 SPPEPS equ 0X0F64
  00000F65            00039 SPPCON equ 0X0F65
  00000F66            00040 UFRM equ 0X0F66
  00000F66            00041 UFRML equ 0X0F66
  00000F67            00042 UFRMLH equ 0X0F67
  00000F67            00043 UFRMH equ 0X0F67
  00000F68            00044 UIR equ 0X0F68
  00000F69            00045 UIE equ 0X0F69
  00000F6A            00046 UEIR equ 0X0F6A
  00000F6B            00047 UEIE equ 0X0F6B
  00000F6C            00048 USTAT equ 0X0F6C
  00000F6D            00049 UCON equ 0X0F6D
  00000F6E            00050 UADDR equ 0X0F6E
  00000F6F            00051 UCFG equ 0X0F6F
  00000F70            00052 UEP0 equ 0X0F70
  00000F71            00053 UEP1 equ 0X0F71
  00000F72            00054 UEP2 equ 0X0F72
  00000F73            00055 UEP3 equ 0X0F73
  00000F74            00056 UEP4 equ 0X0F74
  00000F75            00057 UEP5 equ 0X0F75
  00000F76            00058 UEP6 equ 0X0F76
  00000F77            00059 UEP7 equ 0X0F77
  00000F78            00060 UEP8 equ 0X0F78
  00000F79            00061 UEP9 equ 0X0F79
  00000F7A            00062 UEP10 equ 0X0F7A
  00000F7B            00063 UEP11 equ 0X0F7B
  00000F7C            00064 UEP12 equ 0X0F7C
  00000F7D            00065 UEP13 equ 0X0F7D
  00000F7E            00066 UEP14 equ 0X0F7E
  00000F7F            00067 UEP15 equ 0X0F7F
  00000F80            00068 PORTA equ 0X0F80
  00000F81            00069 PORTB equ 0X0F81
  00000F82            00070 PORTC equ 0X0F82
  00000F83            00071 PORTD equ 0X0F83
  00000F84            00072 PORTE equ 0X0F84
  00000F89            00073 LATA equ 0X0F89
  00000F8A            00074 LATB equ 0X0F8A
  00000F8B            00075 LATC equ 0X0F8B
  00000F8C            00076 LATD equ 0X0F8C
  00000F8D            00077 LATE equ 0X0F8D
  00000F92            00078 DDRA equ 0X0F92
  00000F92            00079 TRISA equ 0X0F92
  00000F93            00080 DDRB equ 0X0F93
  00000F93            00081 TRISB equ 0X0F93
  00000F94            00082 DDRC equ 0X0F94
  00000F94            00083 TRISC equ 0X0F94
  00000F95            00084 DDRD equ 0X0F95
  00000F95            00085 TRISD equ 0X0F95
  00000F96            00086 DDRE equ 0X0F96
  00000F96            00087 TRISE equ 0X0F96
  00000F9B            00088 OSCTUNE equ 0X0F9B
  00000F9D            00089 PIE1 equ 0X0F9D
  00000F9E            00090 PIR1 equ 0X0F9E
  00000F9F            00091 IPR1 equ 0X0F9F
  00000FA0            00092 PIE2 equ 0X0FA0
  00000FA1            00093 PIR2 equ 0X0FA1
  00000FA2            00094 IPR2 equ 0X0FA2
  00000FA6            00095 EECON1 equ 0X0FA6
  00000FA7            00096 EECON2 equ 0X0FA7
  00000FA8            00097 EEDATL equ 0X0FA8
  00000FA8            00098 EEDATA equ 0X0FA8
  00000FA9            00099 EEADR equ 0X0FA9
  00000FAB            00100 RCSTA equ 0X0FAB
  00000FAC            00101 TXSTA equ 0X0FAC
  00000FAD            00102 TXREG equ 0X0FAD
  00000FAE            00103 RCREG equ 0X0FAE
  00000FAF            00104 SPBRG equ 0X0FAF
  00000FB0            00105 SPBRGH equ 0X0FB0
  00000FB1            00106 T3CON equ 0X0FB1
  00000FB2            00107 TMR3L equ 0X0FB2
  00000FB3            00108 TMR3LH equ 0X0FB3
  00000FB3            00109 TMR3H equ 0X0FB3
  00000FB4            00110 CMCON equ 0X0FB4
  00000FB5            00111 CVRCON equ 0X0FB5
  00000FB6            00112 CCP1AS equ 0X0FB6
  00000FB6            00113 ECCP1AS equ 0X0FB6
  00000FB7            00114 CCP1DEL equ 0X0FB7
  00000FB7            00115 ECCP1DEL equ 0X0FB7
  00000FB8            00116 BAUDCON equ 0X0FB8
  00000FBA            00117 CCP2CON equ 0X0FBA
  00000FBB            00118 CCPR2 equ 0X0FBB
  00000FBB            00119 CCPR2L equ 0X0FBB
  00000FBC            00120 CCPR2LH equ 0X0FBC
  00000FBC            00121 CCPR2H equ 0X0FBC
  00000FBD            00122 CCP1CON equ 0X0FBD
  00000FBD            00123 ECCP1CON equ 0X0FBD
  00000FBE            00124 CCPR1 equ 0X0FBE
  00000FBE            00125 CCPR1L equ 0X0FBE
  00000FBF            00126 CCPR1LH equ 0X0FBF
  00000FBF            00127 CCPR1H equ 0X0FBF
  00000FC0            00128 ADCON2 equ 0X0FC0
  00000FC1            00129 ADCON1 equ 0X0FC1
  00000FC2            00130 ADCON0 equ 0X0FC2
  00000FC3            00131 ADRES equ 0X0FC3
  00000FC3            00132 ADRESL equ 0X0FC3
  00000FC4            00133 ADRESLH equ 0X0FC4
  00000FC4            00134 ADRESH equ 0X0FC4
  00000FC5            00135 SSPCON2 equ 0X0FC5
  00000FC6            00136 SSPCON1 equ 0X0FC6
  00000FC7            00137 SSPSTAT equ 0X0FC7
  00000FC8            00138 SSPADD equ 0X0FC8
  00000FC9            00139 SSPBUF equ 0X0FC9
  00000FCA            00140 T2CON equ 0X0FCA
  00000FCB            00141 PR2 equ 0X0FCB
  00000FCC            00142 TMR2 equ 0X0FCC
  00000FCD            00143 T1CON equ 0X0FCD
  00000FCE            00144 TMR1L equ 0X0FCE
  00000FCF            00145 TMR1LH equ 0X0FCF
  00000FCF            00146 TMR1H equ 0X0FCF
  00000FD0            00147 RCON equ 0X0FD0
  00000FD1            00148 WDTCON equ 0X0FD1
  00000FD2            00149 HLVDCON equ 0X0FD2
  00000FD2            00150 LVDCON equ 0X0FD2
  00000FD3            00151 OSCCON equ 0X0FD3
  00000FD5            00152 T0CON equ 0X0FD5
  00000FD6            00153 TMR0L equ 0X0FD6
  00000FD7            00154 TMR0LH equ 0X0FD7
  00000FD7            00155 TMR0H equ 0X0FD7
  00000FD8            00156 STATUS equ 0X0FD8
  00000FD9            00157 FSR2L equ 0X0FD9
  00000FDA            00158 FSR2LH equ 0X0FDA
  00000FDA            00159 FSR2H equ 0X0FDA
  00000FDB            00160 PLUSW2 equ 0X0FDB
  00000FDC            00161 PREINC2 equ 0X0FDC
  00000FDD            00162 POSTDEC2 equ 0X0FDD
  00000FDE            00163 POSTINC2 equ 0X0FDE
  00000FDF            00164 INDF2 equ 0X0FDF
  00000FE0            00165 BSR equ 0X0FE0
  00000FE1            00166 FSR1L equ 0X0FE1
  00000FE2            00167 FSR1LH equ 0X0FE2
  00000FE2            00168 FSR1H equ 0X0FE2
  00000FE3            00169 PLUSW1 equ 0X0FE3
  00000FE4            00170 PREINC1 equ 0X0FE4
  00000FE5            00171 POSTDEC1 equ 0X0FE5
  00000FE6            00172 POSTINC1 equ 0X0FE6
  00000FE7            00173 INDF1 equ 0X0FE7
  00000FE8            00174 WREG equ 0X0FE8
  00000FE9            00175 FSR0L equ 0X0FE9
  00000FEA            00176 FSR0LH equ 0X0FEA
  00000FEA            00177 FSR0H equ 0X0FEA
  00000FEB            00178 PLUSW0 equ 0X0FEB
  00000FEC            00179 PREINC0 equ 0X0FEC
  00000FED            00180 POSTDEC0 equ 0X0FED
  00000FEE            00181 POSTINC0 equ 0X0FEE
  00000FEF            00182 INDF0 equ 0X0FEF
  00000FF0            00183 INTCON3 equ 0X0FF0
  00000FF1            00184 INTCON2 equ 0X0FF1
  00000FF2            00185 INTCON equ 0X0FF2
  00000FF3            00186 PRODL equ 0X0FF3
  00000FF4            00187 PRODLH equ 0X0FF4
  00000FF4            00188 PRODH equ 0X0FF4
  00000FF5            00189 TABLAT equ 0X0FF5
  00000FF6            00190 TBLPTRL equ 0X0FF6
  00000FF7            00191 TBLPTRLH equ 0X0FF7
  00000FF7            00192 TBLPTRH equ 0X0FF7
  00000FF8            00193 TBLPTRU equ 0X0FF8
  00000FF8            00194 TBLPTRLHH equ 0X0FF8
  00000FF9            00195 PC equ 0X0FF9
  00000FF9            00196 PCL equ 0X0FF9
  00000FFA            00197 PCLATH equ 0X0FFA
  00000FFB            00198 PCLATU equ 0X0FFB
  00000FFC            00199 STKPTR equ 0X0FFC
  00000FFD            00200 TOS equ 0X0FFD
  00000FFD            00201 TOSL equ 0X0FFD
  00000FFE            00202 TOSLH equ 0X0FFE
  00000FFE            00203 TOSH equ 0X0FFE
  00000FFF            00204 TOSU equ 0X0FFF
  00000F93            00205 _I2C_SCL_PORT=TRISB
  00000001            00206 _I2C_SCL_PIN=1
  00000F93            00207 _I2C_SDA_PORT=TRISB
  00000000            00208 _I2C_SDA_PIN=0
  00000000            00209 WS0=0
  00000001            00210 WS1=1
  00000002            00211 WS2=2
  00000003            00212 WS3=3
  00000004            00213 CLK1EN=4
  00000005            00214 CSEN=5
  00000006            00215 CLKCFG0=6
  00000007            00216 CLKCFG1=7
  00000000            00217 ADDR0=0
  00000001            00218 ADDR1=1
  00000002            00219 ADDR2=2
  00000003            00220 ADDR3=3
  00000004            00221 SPPBUSY=4
  00000006            00222 WRSPP=6
  00000006            00223 PP_WRSPP=6
  00000007            00224 RDSPP=7
  00000007            00225 PP_RDSPP=7
  00000000            00226 SPPEN=0
  00000001            00227 SPPOWN=1
  00000000            00228 FRM0=0
  00000001            00229 FRM1=1
  00000002            00230 FRM2=2
  00000003            00231 FRM3=3
  00000004            00232 FRM4=4
  00000005            00233 FRM5=5
  00000006            00234 FRM6=6
  00000007            00235 FRM7=7
  00000000            00236 FRM8=0
  00000001            00237 FRM9=1
  00000002            00238 FRM10=2
  00000000            00239 URSTIF=0
  00000000            00240 PP_URSTIF=0
  00000001            00241 UERRIF=1
  00000001            00242 PP_UERRIF=1
  00000002            00243 ACTVIF=2
  00000002            00244 PP_ACTVIF=2
  00000003            00245 TRNIF=3
  00000003            00246 PP_TRNIF=3
  00000004            00247 IDLEIF=4
  00000004            00248 PP_IDLEIF=4
  00000005            00249 STALLIF=5
  00000005            00250 PP_STALLIF=5
  00000006            00251 SOFIF=6
  00000006            00252 PP_SOFIF=6
  00000000            00253 URSTIE=0
  00000000            00254 PP_URSTIE=0
  00000001            00255 UERRIE=1
  00000001            00256 PP_UERRIE=1
  00000002            00257 ACTVIE=2
  00000002            00258 PP_ACTVIE=2
  00000003            00259 TRNIE=3
  00000003            00260 PP_TRNIE=3
  00000004            00261 IDLEIE=4
  00000004            00262 PP_IDLEIE=4
  00000005            00263 STALLIE=5
  00000005            00264 PP_STALLIE=5
  00000006            00265 SOFIE=6
  00000006            00266 PP_SOFIE=6
  00000000            00267 PIDEF=0
  00000001            00268 CRC5EF=1
  00000002            00269 CRC16EF=2
  00000003            00270 DFN8EF=3
  00000004            00271 BTOEF=4
  00000007            00272 BTSEF=7
  00000000            00273 PIDEE=0
  00000001            00274 CRC5EE=1
  00000002            00275 CRC16EE=2
  00000003            00276 DFN8EE=3
  00000004            00277 BTOEE=4
  00000007            00278 BTSEE=7
  00000001            00279 PPBI=1
  00000002            00280 DIR=2
  00000003            00281 ENDP0=3
  00000004            00282 ENDP1=4
  00000005            00283 ENDP2=5
  00000006            00284 ENDP3=6
  00000001            00285 SUSPND=1
  00000001            00286 PP_SUSPND=1
  00000002            00287 RESUME=2
  00000002            00288 PP_RESUME=2
  00000003            00289 USBEN=3
  00000003            00290 PP_USBEN=3
  00000004            00291 PKTDIS=4
  00000004            00292 PP_PKTDIS=4
  00000005            00293 SE0=5
  00000005            00294 PP_SE0=5
  00000006            00295 PPBRST=6
  00000000            00296 ADDR0=0
  00000001            00297 ADDR1=1
  00000002            00298 ADDR2=2
  00000003            00299 ADDR3=3
  00000004            00300 ADDR4=4
  00000005            00301 ADDR5=5
  00000006            00302 ADDR6=6
  00000000            00303 PPB0=0
  00000001            00304 PPB1=1
  00000002            00305 FSEN=2
  00000003            00306 UTRDIS=3
  00000004            00307 UPUEN=4
  00000006            00308 UOEMON=6
  00000007            00309 UTEYE=7
  00000000            00310 EPSTALL=0
  00000000            00311 PP_EPSTALL=0
  00000001            00312 EPINEN=1
  00000002            00313 EPOUTEN=2
  00000003            00314 EPCONDIS=3
  00000004            00315 EPHSHK=4
  00000000            00316 EPSTALL=0
  00000000            00317 PP_EPSTALL=0
  00000001            00318 EPINEN=1
  00000002            00319 EPOUTEN=2
  00000003            00320 EPCONDIS=3
  00000004            00321 EPHSHK=4
  00000000            00322 EPSTALL=0
  00000000            00323 PP_EPSTALL=0
  00000001            00324 EPINEN=1
  00000002            00325 EPOUTEN=2
  00000003            00326 EPCONDIS=3
  00000004            00327 EPHSHK=4
  00000000            00328 EPSTALL=0
  00000000            00329 PP_EPSTALL=0
  00000001            00330 EPINEN=1
  00000002            00331 EPOUTEN=2
  00000003            00332 EPCONDIS=3
  00000004            00333 EPHSHK=4
  00000000            00334 EPSTALL=0
  00000000            00335 PP_EPSTALL=0
  00000001            00336 EPINEN=1
  00000002            00337 EPOUTEN=2
  00000003            00338 EPCONDIS=3
  00000004            00339 EPHSHK=4
  00000000            00340 EPSTALL=0
  00000000            00341 PP_EPSTALL=0
  00000001            00342 EPINEN=1
  00000002            00343 EPOUTEN=2
  00000003            00344 EPCONDIS=3
  00000004            00345 EPHSHK=4
  00000000            00346 EPSTALL=0
  00000000            00347 PP_EPSTALL=0
  00000001            00348 EPINEN=1
  00000002            00349 EPOUTEN=2
  00000003            00350 EPCONDIS=3
  00000004            00351 EPHSHK=4
  00000000            00352 EPSTALL=0
  00000000            00353 PP_EPSTALL=0
  00000001            00354 EPINEN=1
  00000002            00355 EPOUTEN=2
  00000003            00356 EPCONDIS=3
  00000004            00357 EPHSHK=4
  00000000            00358 EPSTALL=0
  00000000            00359 PP_EPSTALL=0
  00000001            00360 EPINEN=1
  00000002            00361 EPOUTEN=2
  00000003            00362 EPCONDIS=3
  00000004            00363 EPHSHK=4
  00000000            00364 EPSTALL=0
  00000000            00365 PP_EPSTALL=0
  00000001            00366 EPINEN=1
  00000002            00367 EPOUTEN=2
  00000003            00368 EPCONDIS=3
  00000004            00369 EPHSHK=4
  00000000            00370 EPSTALL=0
  00000000            00371 PP_EPSTALL=0
  00000001            00372 EPINEN=1
  00000002            00373 EPOUTEN=2
  00000003            00374 EPCONDIS=3
  00000004            00375 EPHSHK=4
  00000000            00376 EPSTALL=0
  00000000            00377 PP_EPSTALL=0
  00000001            00378 EPINEN=1
  00000002            00379 EPOUTEN=2
  00000003            00380 EPCONDIS=3
  00000004            00381 EPHSHK=4
  00000000            00382 EPSTALL=0
  00000000            00383 PP_EPSTALL=0
  00000001            00384 EPINEN=1
  00000002            00385 EPOUTEN=2
  00000003            00386 EPCONDIS=3
  00000004            00387 EPHSHK=4
  00000000            00388 EPSTALL=0
  00000000            00389 PP_EPSTALL=0
  00000001            00390 EPINEN=1
  00000002            00391 EPOUTEN=2
  00000003            00392 EPCONDIS=3
  00000004            00393 EPHSHK=4
  00000000            00394 EPSTALL=0
  00000000            00395 PP_EPSTALL=0
  00000001            00396 EPINEN=1
  00000002            00397 EPOUTEN=2
  00000003            00398 EPCONDIS=3
  00000004            00399 EPHSHK=4
  00000000            00400 EPSTALL=0
  00000000            00401 PP_EPSTALL=0
  00000001            00402 EPINEN=1
  00000002            00403 EPOUTEN=2
  00000003            00404 EPCONDIS=3
  00000004            00405 EPHSHK=4
  00000000            00406 RA0=0
  00000001            00407 RA1=1
  00000002            00408 RA2=2
  00000003            00409 RA3=3
  00000004            00410 RA4=4
  00000005            00411 RA5=5
  00000006            00412 RA6=6
  00000000            00413 AN0=0
  00000001            00414 AN1=1
  00000002            00415 AN2=2
  00000003            00416 AN3=3
  00000004            00417 T0CKI=4
  00000005            00418 AN4=5
  00000006            00419 OSC2=6
  00000002            00420 VREFM=2
  00000003            00421 VREFP=3
  00000005            00422 LVDIN=5
  00000005            00423 HLVDIN=5
  00000000            00424 RB0=0
  00000001            00425 RB1=1
  00000002            00426 RB2=2
  00000003            00427 RB3=3
  00000004            00428 RB4=4
  00000005            00429 RB5=5
  00000006            00430 RB6=6
  00000007            00431 RB7=7
  00000000            00432 INT0=0
  00000001            00433 INT1=1
  00000002            00434 INT2=2
  00000005            00435 PGM=5
  00000006            00436 PGC=6
  00000007            00437 PGD=7
  00000000            00438 RC0=0
  00000001            00439 RC1=1
  00000002            00440 RC2=2
  00000004            00441 RC4=4
  00000005            00442 RC5=5
  00000006            00443 RC6=6
  00000007            00444 RC7=7
  00000000            00445 T1OSO=0
  00000001            00446 T1OSI=1
  00000002            00447 CCP1=2
  00000006            00448 TX=6
  00000007            00449 RX=7
  00000000            00450 T13CKI=0
  00000002            00451 P1A=2
  00000006            00452 CK=6
  00000000            00453 RD0=0
  00000000            00454 PP_RD0=0
  00000001            00455 RD1=1
  00000001            00456 PP_RD1=1
  00000002            00457 RD2=2
  00000002            00458 PP_RD2=2
  00000003            00459 RD3=3
  00000003            00460 PP_RD3=3
  00000004            00461 RD4=4
  00000004            00462 PP_RD4=4
  00000005            00463 RD5=5
  00000005            00464 PP_RD5=5
  00000006            00465 RD6=6
  00000006            00466 PP_RD6=6
  00000007            00467 RD7=7
  00000007            00468 PP_RD7=7
  00000000            00469 SPP0=0
  00000001            00470 SPP1=1
  00000002            00471 SPP2=2
  00000003            00472 SPP3=3
  00000004            00473 SPP4=4
  00000005            00474 SPP5=5
  00000006            00475 SPP6=6
  00000007            00476 SPP7=7
  00000000            00477 RE0=0
  00000001            00478 RE1=1
  00000002            00479 RE2=2
  00000003            00480 RE3=3
  00000007            00481 RDPU=7
  00000007            00482 PP_RDPU=7
  00000000            00483 CK1SPP=0
  00000001            00484 CK2SPP=1
  00000002            00485 OESPP=2
  00000000            00486 LATA0=0
  00000001            00487 LATA1=1
  00000002            00488 LATA2=2
  00000003            00489 LATA3=3
  00000004            00490 LATA4=4
  00000005            00491 LATA5=5
  00000006            00492 LATA6=6
  00000000            00493 LATB0=0
  00000001            00494 LATB1=1
  00000002            00495 LATB2=2
  00000003            00496 LATB3=3
  00000004            00497 LATB4=4
  00000005            00498 LATB5=5
  00000006            00499 LATB6=6
  00000007            00500 LATB7=7
  00000000            00501 LATC0=0
  00000001            00502 LATC1=1
  00000002            00503 LATC2=2
  00000006            00504 LATC6=6
  00000007            00505 LATC7=7
  00000000            00506 LATD0=0
  00000001            00507 LATD1=1
  00000002            00508 LATD2=2
  00000003            00509 LATD3=3
  00000004            00510 LATD4=4
  00000005            00511 LATD5=5
  00000006            00512 LATD6=6
  00000007            00513 LATD7=7
  00000000            00514 LATE0=0
  00000001            00515 LATE1=1
  00000002            00516 LATE2=2
  00000000            00517 RA0=0
  00000001            00518 RA1=1
  00000002            00519 RA2=2
  00000003            00520 RA3=3
  00000004            00521 RA4=4
  00000005            00522 RA5=5
  00000006            00523 RA6=6
  00000000            00524 TRISA0=0
  00000001            00525 TRISA1=1
  00000002            00526 TRISA2=2
  00000003            00527 TRISA3=3
  00000004            00528 TRISA4=4
  00000005            00529 TRISA5=5
  00000006            00530 TRISA6=6
  00000000            00531 RB0=0
  00000001            00532 RB1=1
  00000002            00533 RB2=2
  00000003            00534 RB3=3
  00000004            00535 RB4=4
  00000005            00536 RB5=5
  00000006            00537 RB6=6
  00000007            00538 RB7=7
  00000000            00539 TRISB0=0
  00000001            00540 TRISB1=1
  00000002            00541 TRISB2=2
  00000003            00542 TRISB3=3
  00000004            00543 TRISB4=4
  00000005            00544 TRISB5=5
  00000006            00545 TRISB6=6
  00000007            00546 TRISB7=7
  00000000            00547 RC0=0
  00000001            00548 RC1=1
  00000002            00549 RC2=2
  00000006            00550 RC6=6
  00000007            00551 RC7=7
  00000000            00552 TRISC0=0
  00000001            00553 TRISC1=1
  00000002            00554 TRISC2=2
  00000006            00555 TRISC6=6
  00000007            00556 TRISC7=7
  00000000            00557 RD0=0
  00000000            00558 PP_RD0=0
  00000001            00559 RD1=1
  00000001            00560 PP_RD1=1
  00000002            00561 RD2=2
  00000002            00562 PP_RD2=2
  00000003            00563 RD3=3
  00000003            00564 PP_RD3=3
  00000004            00565 RD4=4
  00000004            00566 PP_RD4=4
  00000005            00567 RD5=5
  00000005            00568 PP_RD5=5
  00000006            00569 RD6=6
  00000006            00570 PP_RD6=6
  00000007            00571 RD7=7
  00000007            00572 PP_RD7=7
  00000000            00573 TRISD0=0
  00000001            00574 TRISD1=1
  00000002            00575 TRISD2=2
  00000003            00576 TRISD3=3
  00000004            00577 TRISD4=4
  00000005            00578 TRISD5=5
  00000006            00579 TRISD6=6
  00000007            00580 TRISD7=7
  00000000            00581 RE0=0
  00000001            00582 RE1=1
  00000002            00583 RE2=2
  00000000            00584 TRISE0=0
  00000001            00585 TRISE1=1
  00000002            00586 TRISE2=2
  00000000            00587 TUN0=0
  00000001            00588 TUN1=1
  00000002            00589 TUN2=2
  00000003            00590 TUN3=3
  00000004            00591 TUN4=4
  00000007            00592 INTSRC=7
  00000000            00593 TMR1IE=0
  00000001            00594 TMR2IE=1
  00000002            00595 CCP1IE=2
  00000003            00596 SSPIE=3
  00000004            00597 TXIE=4
  00000005            00598 RCIE=5
  00000006            00599 ADIE=6
  00000007            00600 SPPIE=7
  00000000            00601 TMR1IF=0
  00000001            00602 TMR2IF=1
  00000002            00603 CCP1IF=2
  00000003            00604 SSPIF=3
  00000004            00605 TXIF=4
  00000004            00606 PP_TXIF=4
  00000005            00607 RCIF=5
  00000005            00608 PP_RCIF=5
  00000006            00609 ADIF=6
  00000007            00610 SPPIF=7
  00000000            00611 TMR1IP=0
  00000001            00612 TMR2IP=1
  00000002            00613 CCP1IP=2
  00000003            00614 SSPIP=3
  00000004            00615 TXIP=4
  00000005            00616 RCIP=5
  00000006            00617 ADIP=6
  00000007            00618 SPPIP=7
  00000000            00619 CCP2IE=0
  00000001            00620 TMR3IE=1
  00000002            00621 LVDIE=2
  00000003            00622 BCLIE=3
  00000004            00623 EEIE=4
  00000005            00624 USBIE=5
  00000006            00625 CMIE=6
  00000007            00626 OSCFIE=7
  00000002            00627 HLVDIE=2
  00000000            00628 CCP2IF=0
  00000001            00629 TMR3IF=1
  00000002            00630 LVDIF=2
  00000003            00631 BCLIF=3
  00000004            00632 EEIF=4
  00000005            00633 USBIF=5
  00000006            00634 CMIF=6
  00000007            00635 OSCFIF=7
  00000002            00636 HLVDIF=2
  00000000            00637 CCP2IP=0
  00000001            00638 TMR3IP=1
  00000002            00639 LVDIP=2
  00000003            00640 BCLIP=3
  00000004            00641 EEIP=4
  00000005            00642 USBIP=5
  00000006            00643 CMIP=6
  00000007            00644 OSCFIP=7
  00000002            00645 HLVDIP=2
  00000000            00646 RD=0
  00000000            00647 PP_RD=0
  00000001            00648 WR=1
  00000001            00649 PP_WR=1
  00000002            00650 WREN=2
  00000002            00651 PP_WREN=2
  00000003            00652 WRERR=3
  00000003            00653 PP_WRERR=3
  00000004            00654 FREE=4
  00000006            00655 CFGS=6
  00000007            00656 EEPGD=7
  00000007            00657 PP_EEPGD=7
  00000000            00658 RX9D=0
  00000001            00659 OERR=1
  00000001            00660 PP_OERR=1
  00000002            00661 FERR=2
  00000003            00662 ADDEN=3
  00000004            00663 CREN=4
  00000004            00664 PP_CREN=4
  00000005            00665 SREN=5
  00000006            00666 RX9=6
  00000007            00667 SPEN=7
  00000003            00668 ADEN=3
  00000000            00669 TX9D=0
  00000001            00670 TRMT=1
  00000002            00671 BRGH=2
  00000003            00672 SENDB=3
  00000003            00673 PP_SENDB=3
  00000004            00674 SYNC=4
  00000005            00675 TXEN=5
  00000006            00676 TX9=6
  00000007            00677 CSRC=7
  00000000            00678 TMR3ON=0
  00000001            00679 TMR3CS=1
  00000002            00680 T3SYNC=2
  00000003            00681 T3CCP1=3
  00000003            00682 PP_T3CCP1=3
  00000004            00683 T3CKPS0=4
  00000005            00684 T3CKPS1=5
  00000006            00685 T3CCP2=6
  00000006            00686 PP_T3CCP2=6
  00000007            00687 RD16=7
  00000007            00688 PP_RD16=7
  00000002            00689 T3NSYNC=2
  00000002            00690 NOT_T3SYNC=2
  00000000            00691 CM0=0
  00000001            00692 CM1=1
  00000002            00693 CM2=2
  00000003            00694 CIS=3
  00000004            00695 C1INV=4
  00000005            00696 C2INV=5
  00000006            00697 C1OUT=6
  00000007            00698 C2OUT=7
  00000000            00699 CVR0=0
  00000001            00700 CVR1=1
  00000002            00701 CVR2=2
  00000003            00702 CVR3=3
  00000004            00703 CVREF=4
  00000005            00704 CVRR=5
  00000006            00705 CVROE=6
  00000007            00706 CVREN=7
  00000004            00707 CVRSS=4
  00000000            00708 PSSBD0=0
  00000001            00709 PSSBD1=1
  00000002            00710 PSSAC0=2
  00000003            00711 PSSAC1=3
  00000004            00712 ECCPAS0=4
  00000005            00713 ECCPAS1=5
  00000006            00714 ECCPAS2=6
  00000007            00715 ECCPASE=7
  00000000            00716 PSSBD0=0
  00000001            00717 PSSBD1=1
  00000002            00718 PSSAC0=2
  00000003            00719 PSSAC1=3
  00000004            00720 ECCPAS0=4
  00000005            00721 ECCPAS1=5
  00000006            00722 ECCPAS2=6
  00000007            00723 ECCPASE=7
  00000000            00724 PDC0=0
  00000001            00725 PDC1=1
  00000002            00726 PDC2=2
  00000003            00727 PDC3=3
  00000004            00728 PDC4=4
  00000005            00729 PDC5=5
  00000006            00730 PDC6=6
  00000007            00731 PRSEN=7
  00000000            00732 PDC0=0
  00000001            00733 PDC1=1
  00000002            00734 PDC2=2
  00000003            00735 PDC3=3
  00000004            00736 PDC4=4
  00000005            00737 PDC5=5
  00000006            00738 PDC6=6
  00000007            00739 PRSEN=7
  00000000            00740 ABDEN=0
  00000001            00741 WUE=1
  00000003            00742 BRG16=3
  00000004            00743 SCKP=4
  00000006            00744 RCIDL=6
  00000007            00745 ABDOVF=7
  00000004            00746 TXCKP=4
  00000005            00747 RXDTP=5
  00000006            00748 RCMT=6
  00000000            00749 CCP2M0=0
  00000001            00750 CCP2M1=1
  00000002            00751 CCP2M2=2
  00000003            00752 CCP2M3=3
  00000004            00753 DC2B0=4
  00000005            00754 DC2B1=5
  00000000            00755 CCP1M0=0
  00000001            00756 CCP1M1=1
  00000002            00757 CCP1M2=2
  00000003            00758 CCP1M3=3
  00000004            00759 DC1B0=4
  00000005            00760 DC1B1=5
  00000006            00761 P1M0=6
  00000007            00762 P1M1=7
  00000000            00763 CCP1M0=0
  00000001            00764 CCP1M1=1
  00000002            00765 CCP1M2=2
  00000003            00766 CCP1M3=3
  00000004            00767 DC1B0=4
  00000005            00768 DC1B1=5
  00000006            00769 P1M0=6
  00000007            00770 P1M1=7
  00000000            00771 ADCS0=0
  00000001            00772 ADCS1=1
  00000002            00773 ADCS2=2
  00000003            00774 ACQT0=3
  00000004            00775 ACQT1=4
  00000005            00776 ACQT2=5
  00000007            00777 ADFM=7
  00000000            00778 PCFG0=0
  00000001            00779 PCFG1=1
  00000002            00780 PCFG2=2
  00000003            00781 PCFG3=3
  00000004            00782 VCFG0=4
  00000005            00783 VCFG1=5
  00000000            00784 ADON=0
  00000000            00785 PP_ADON=0
  00000001            00786 GO_DONE=1
  00000001            00787 PP_GO_DONE=1
  00000002            00788 CHS0=2
  00000003            00789 CHS1=3
  00000004            00790 CHS2=4
  00000005            00791 CHS3=5
  00000001            00792 DONE=1
  00000001            00793 GO=1
  00000001            00794 NOT_DONE=1
  00000000            00795 SEN=0
  00000000            00796 PP_SEN=0
  00000001            00797 RSEN=1
  00000001            00798 PP_RSEN=1
  00000002            00799 PEN=2
  00000002            00800 PP_PEN=2
  00000003            00801 RCEN=3
  00000003            00802 PP_RCEN=3
  00000004            00803 ACKEN=4
  00000004            00804 PP_ACKEN=4
  00000005            00805 ACKDT=5
  00000005            00806 PP_ACKDT=5
  00000006            00807 ACKSTAT=6
  00000007            00808 GCEN=7
  00000000            00809 SSPM0=0
  00000001            00810 SSPM1=1
  00000002            00811 SSPM2=2
  00000003            00812 SSPM3=3
  00000004            00813 CKP=4
  00000005            00814 SSPEN=5
  00000006            00815 SSPOV=6
  00000007            00816 WCOL=7
  00000000            00817 BF=0
  00000001            00818 UA=1
  00000002            00819 R_W=2
  00000002            00820 PP_R_W=2
  00000005            00821 D_A=5
  00000006            00822 CKE=6
  00000007            00823 SMP=7
  00000002            00824 I2C_READ=2
  00000003            00825 I2C_START=3
  00000004            00826 I2C_STOP=4
  00000005            00827 I2C_DAT=5
  00000002            00828 NOT_W=2
  00000005            00829 NOT_A=5
  00000002            00830 NOT_WRITE=2
  00000005            00831 NOT_ADDRESS=5
  00000002            00832 READ_WRITE=2
  00000005            00833 DATA_ADDRESS=5
  00000000            00834 T2CKPS0=0
  00000000            00835 PP_T2CKPS0=0
  00000001            00836 T2CKPS1=1
  00000001            00837 PP_T2CKPS1=1
  00000002            00838 TMR2ON=2
  00000002            00839 PP_TMR2ON=2
  00000003            00840 T2OUTPS0=3
  00000004            00841 T2OUTPS1=4
  00000005            00842 T2OUTPS2=5
  00000006            00843 T2OUTPS3=6
  00000000            00844 TMR1ON=0
  00000001            00845 TMR1CS=1
  00000002            00846 T1SYNC=2
  00000003            00847 T1OSCEN=3
  00000004            00848 T1CKPS0=4
  00000005            00849 T1CKPS1=5
  00000006            00850 T1RUN=6
  00000007            00851 RD16=7
  00000007            00852 PP_RD16=7
  00000002            00853 NOT_T1SYNC=2
  00000000            00854 NOT_BOR=0
  00000001            00855 NOT_POR=1
  00000002            00856 NOT_PD=2
  00000003            00857 NOT_TO=3
  00000004            00858 NOT_RI=4
  00000006            00859 SBOREN=6
  00000007            00860 NOT_IPEN=7
  00000000            00861 BOR=0
  00000001            00862 POR=1
  00000002            00863 PD=2
  00000003            00864 TO=3
  00000004            00865 RI=4
  00000007            00866 IPEN=7
  00000000            00867 SWDTEN=0
  00000000            00868 SWDTE=0
  00000000            00869 LVDL0=0
  00000001            00870 LVDL1=1
  00000002            00871 LVDL2=2
  00000003            00872 LVDL3=3
  00000004            00873 LVDEN=4
  00000005            00874 IRVST=5
  00000000            00875 LVV0=0
  00000001            00876 LVV1=1
  00000002            00877 LVV2=2
  00000003            00878 LVV3=3
  00000005            00879 BGST=5
  00000000            00880 HLVDL0=0
  00000001            00881 HLVDL1=1
  00000002            00882 HLVDL2=2
  00000003            00883 HLVDL3=3
  00000004            00884 HLVDEN=4
  00000007            00885 VDIRMAG=7
  00000005            00886 IVRST=5
  00000000            00887 LVDL0=0
  00000001            00888 LVDL1=1
  00000002            00889 LVDL2=2
  00000003            00890 LVDL3=3
  00000004            00891 LVDEN=4
  00000005            00892 IRVST=5
  00000000            00893 LVV0=0
  00000001            00894 LVV1=1
  00000002            00895 LVV2=2
  00000003            00896 LVV3=3
  00000005            00897 BGST=5
  00000000            00898 HLVDL0=0
  00000001            00899 HLVDL1=1
  00000002            00900 HLVDL2=2
  00000003            00901 HLVDL3=3
  00000004            00902 HLVDEN=4
  00000007            00903 VDIRMAG=7
  00000005            00904 IVRST=5
  00000000            00905 SCS0=0
  00000001            00906 SCS1=1
  00000002            00907 IOFS=2
  00000003            00908 OSTS=3
  00000004            00909 IRCF0=4
  00000005            00910 IRCF1=5
  00000006            00911 IRCF2=6
  00000007            00912 IDLEN=7
  00000002            00913 FLTS=2
  00000000            00914 T0PS0=0
  00000001            00915 T0PS1=1
  00000002            00916 T0PS2=2
  00000003            00917 PSA=3
  00000004            00918 T0SE=4
  00000005            00919 T0CS=5
  00000006            00920 T08BIT=6
  00000007            00921 TMR0ON=7
  00000000            00922 C=0
  00000001            00923 DC=1
  00000002            00924 Z=2
  00000003            00925 OV=3
  00000004            00926 N=4
  00000000            00927 INT1IF=0
  00000001            00928 INT2IF=1
  00000003            00929 INT1IE=3
  00000004            00930 INT2IE=4
  00000006            00931 INT1IP=6
  00000007            00932 INT2IP=7
  00000000            00933 INT1F=0
  00000001            00934 INT2F=1
  00000003            00935 INT1E=3
  00000004            00936 INT2E=4
  00000006            00937 INT1P=6
  00000007            00938 INT2P=7
  00000000            00939 RBIP=0
  00000002            00940 TMR0IP=2
  00000004            00941 INTEDG2=4
  00000005            00942 INTEDG1=5
  00000006            00943 INTEDG0=6
  00000007            00944 NOT_RBPU=7
  00000002            00945 T0IP=2
  00000007            00946 RBPU=7
  00000000            00947 RBIF=0
  00000001            00948 INT0IF=1
  00000002            00949 TMR0IF=2
  00000003            00950 RBIE=3
  00000004            00951 INT0IE=4
  00000005            00952 TMR0IE=5
  00000006            00953 PEIE=6
  00000007            00954 GIE=7
  00000001            00955 INT0F=1
  00000002            00956 T0IF=2
  00000004            00957 INT0E=4
  00000005            00958 T0IE=5
  00000006            00959 GIEL=6
  00000007            00960 GIEH=7
  00000000            00961 STKPTR0=0
  00000001            00962 STKPTR1=1
  00000002            00963 STKPTR2=2
  00000003            00964 STKPTR3=3
  00000004            00965 STKPTR4=4
  00000006            00966 STKUNF=6
  00000007            00967 STKFUL=7
  00000FFF            00968   __MAXRAM  0X0FFF
                      00969   __BADRAM  0X0800-0X0F5F
                      00970   __BADRAM  0X0F85-0X0F88
                      00971   __BADRAM  0X0F8E-0X0F91
                      00972   __BADRAM  0X0F97-0X0F9A
                      00973   __BADRAM  0X0F9C
                      00974   __BADRAM  0X0FA3-0X0FA5
                      00975   __BADRAM  0X0FAA
                      00976   __BADRAM  0X0FB9
                      00977   __BADRAM  0X0FD4
  00300000            00978 config1l equ 0X300000
  00300001            00979 config1h equ 0X300001
  00300002            00980 config2l equ 0X300002
  00300003            00981 config2h equ 0X300003
  00300005            00982 config3h equ 0X300005
  00300006            00983 config4l equ 0X300006
  00300008            00984 config5l equ 0X300008
  00300009            00985 config5h equ 0X300009
  0030000A            00986 config6l equ 0X30000A
  0030000B            00987 config6h equ 0X30000B
  0030000C            00988 config7l equ 0X30000C
  0030000D            00989 config7h equ 0X30000D
  000000F8            00990 PLLDIV_1_1 equ 0XF8
  000000F9            00991 PLLDIV_2_1 equ 0XF9
  000000FA            00992 PLLDIV_3_1 equ 0XFA
  000000FB            00993 PLLDIV_4_1 equ 0XFB
  000000FC            00994 PLLDIV_5_1 equ 0XFC
  000000FD            00995 PLLDIV_6_1 equ 0XFD
  000000FE            00996 PLLDIV_10_1 equ 0XFE
  000000FF            00997 PLLDIV_12_1 equ 0XFF
  000000E7            00998 CPUDIV_OSC1_PLL2_1 equ 0XE7
  000000EF            00999 CPUDIV_OSC2_PLL3_1 equ 0XEF
  000000F7            01000 CPUDIV_OSC3_PLL4_1 equ 0XF7
  000000FF            01001 CPUDIV_OSC4_PLL6_1 equ 0XFF
  000000DF            01002 USBDIV_1_1 equ 0XDF
  000000FF            01003 USBDIV_2_1 equ 0XFF
  000000F0            01004 FOSC_XT_XT_1 equ 0XF0
  000000F2            01005 FOSC_XTPLL_XT_1 equ 0XF2
  000000F4            01006 FOSC_ECIO_EC_1 equ 0XF4
  000000F5            01007 FOSC_EC_EC_1 equ 0XF5
  000000F6            01008 FOSC_ECPLLIO_EC_1 equ 0XF6
  000000F7            01009 FOSC_ECPLL_EC_1 equ 0XF7
  000000F8            01010 FOSC_INTOSCIO_EC_1 equ 0XF8
  000000F9            01011 FOSC_INTOSC_EC_1 equ 0XF9
  000000FA            01012 FOSC_INTOSC_XT_1 equ 0XFA
  000000FB            01013 FOSC_INTOSC_HS_1 equ 0XFB
  000000FC            01014 FOSC_HS_1 equ 0XFC
  000000FE            01015 FOSC_HSPLL_HS_1 equ 0XFE
  000000BF            01016 FCMEN_OFF_1 equ 0XBF
  000000FF            01017 FCMEN_ON_1 equ 0XFF
  0000007F            01018 IESO_OFF_1 equ 0X7F
  000000FF            01019 IESO_ON_1 equ 0XFF
  000000FE            01020 PWRT_ON_2 equ 0XFE
  000000FF            01021 PWRT_OFF_2 equ 0XFF
  000000F9            01022 BOR_OFF_2 equ 0XF9
  000000FB            01023 BOR_SOFT_2 equ 0XFB
  000000FD            01024 BOR_ON_ACTIVE_2 equ 0XFD
  000000FF            01025 BOR_ON_2 equ 0XFF
  000000E7            01026 BORV_0_2 equ 0XE7
  000000EF            01027 BORV_1_2 equ 0XEF
  000000F7            01028 BORV_2_2 equ 0XF7
  000000FF            01029 BORV_3_2 equ 0XFF
  000000DF            01030 VREGEN_OFF_2 equ 0XDF
  000000FF            01031 VREGEN_ON_2 equ 0XFF
  000000FE            01032 WDT_OFF_2 equ 0XFE
  000000FF            01033 WDT_ON_2 equ 0XFF
  000000E1            01034 WDTPS_1_2 equ 0XE1
  000000E3            01035 WDTPS_2_2 equ 0XE3
  000000E5            01036 WDTPS_4_2 equ 0XE5
  000000E7            01037 WDTPS_8_2 equ 0XE7
  000000E9            01038 WDTPS_16_2 equ 0XE9
  000000EB            01039 WDTPS_32_2 equ 0XEB
  000000ED            01040 WDTPS_64_2 equ 0XED
  000000EF            01041 WDTPS_128_2 equ 0XEF
  000000F1            01042 WDTPS_256_2 equ 0XF1
  000000F3            01043 WDTPS_512_2 equ 0XF3
  000000F5            01044 WDTPS_1024_2 equ 0XF5
  000000F7            01045 WDTPS_2048_2 equ 0XF7
  000000F9            01046 WDTPS_4096_2 equ 0XF9
  000000FB            01047 WDTPS_8192_2 equ 0XFB
  000000FD            01048 WDTPS_16384_2 equ 0XFD
  000000FF            01049 WDTPS_32768_2 equ 0XFF
  0000007F            01050 MCLRE_OFF_3 equ 0X7F
  000000FF            01051 MCLRE_ON_3 equ 0XFF
  000000FB            01052 LPT1OSC_OFF_3 equ 0XFB
  000000FF            01053 LPT1OSC_ON_3 equ 0XFF
  000000FD            01054 PBADEN_OFF_3 equ 0XFD
  000000FF            01055 PBADEN_ON_3 equ 0XFF
  000000FE            01056 CCP2MX_OFF_3 equ 0XFE
  000000FF            01057 CCP2MX_ON_3 equ 0XFF
  000000FE            01058 STVREN_OFF_4 equ 0XFE
  000000FF            01059 STVREN_ON_4 equ 0XFF
  000000FB            01060 LVP_OFF_4 equ 0XFB
  000000FF            01061 LVP_ON_4 equ 0XFF
  000000DF            01062 ICPRT_OFF_4 equ 0XDF
  000000FF            01063 ICPRT_ON_4 equ 0XFF
  000000BF            01064 XINST_OFF_4 equ 0XBF
  000000FF            01065 XINST_ON_4 equ 0XFF
  0000007F            01066 DEBUG_ON_4 equ 0X7F
  000000FF            01067 DEBUG_OFF_4 equ 0XFF
  000000FE            01068 CP0_ON_5 equ 0XFE
  000000FF            01069 CP0_OFF_5 equ 0XFF
  000000FD            01070 CP1_ON_5 equ 0XFD
  000000FF            01071 CP1_OFF_5 equ 0XFF
  000000FB            01072 CP2_ON_5 equ 0XFB
  000000FF            01073 CP2_OFF_5 equ 0XFF
  000000F7            01074 CP3_ON_5 equ 0XF7
  000000FF            01075 CP3_OFF_5 equ 0XFF
  000000BF            01076 CPB_ON_5 equ 0XBF
  000000FF            01077 CPB_OFF_5 equ 0XFF
  0000007F            01078 CPD_ON_5 equ 0X7F
  000000FF            01079 CPD_OFF_5 equ 0XFF
  000000FE            01080 WRT0_ON_6 equ 0XFE
  000000FF            01081 WRT0_OFF_6 equ 0XFF
  000000FD            01082 WRT1_ON_6 equ 0XFD
  000000FF            01083 WRT1_OFF_6 equ 0XFF
  000000FB            01084 WRT2_ON_6 equ 0XFB
  000000FF            01085 WRT2_OFF_6 equ 0XFF
  000000F7            01086 WRT3_ON_6 equ 0XF7
  000000FF            01087 WRT3_OFF_6 equ 0XFF
  000000BF            01088 WRTB_ON_6 equ 0XBF
  000000FF            01089 WRTB_OFF_6 equ 0XFF
  000000DF            01090 WRTC_ON_6 equ 0XDF
  000000FF            01091 WRTC_OFF_6 equ 0XFF
  0000007F            01092 WRTD_ON_6 equ 0X7F
  000000FF            01093 WRTD_OFF_6 equ 0XFF
  000000FE            01094 EBTR0_ON_7 equ 0XFE
  000000FF            01095 EBTR0_OFF_7 equ 0XFF
  000000FD            01096 EBTR1_ON_7 equ 0XFD
  000000FF            01097 EBTR1_OFF_7 equ 0XFF
  000000FB            01098 EBTR2_ON_7 equ 0XFB
  000000FF            01099 EBTR2_OFF_7 equ 0XFF
  000000F7            01100 EBTR3_ON_7 equ 0XF7
  000000FF            01101 EBTR3_OFF_7 equ 0XFF
  000000BF            01102 EBTRB_ON_7 equ 0XBF
  000000FF            01103 EBTRB_OFF_7 equ 0XFF
  003FFFFE            01104 DEVID1 equ 0X3FFFFE
  003FFFFF            01105 DEVID2 equ 0X3FFFFF
  00200000            01106 IDLOC0 equ 0X200000
  00200000            01107 __IDLOC0 equ 0X200000
  00200001            01108 IDLOC1 equ 0X200001
  00200001            01109 __IDLOC1 equ 0X200001
  00200002            01110 IDLOC2 equ 0X200002
  00200002            01111 __IDLOC2 equ 0X200002
  00200003            01112 IDLOC3 equ 0X200003
  00200003            01113 __IDLOC3 equ 0X200003
  00200004            01114 IDLOC4 equ 0X200004
  00200004            01115 __IDLOC4 equ 0X200004
  00200005            01116 IDLOC5 equ 0X200005
  00200005            01117 __IDLOC5 equ 0X200005
  00200006            01118 IDLOC6 equ 0X200006
  00200006            01119 __IDLOC6 equ 0X200006
  00200007            01120 IDLOC7 equ 0X200007
  00200007            01121 __IDLOC7 equ 0X200007
                      01124 #define __18F4550 1
                      01125 #define XTAL 20
                      01126 #define _CORE 16
                      01127 #define _MAXRAM 1024
                      01128 #define _RAM_END 2048
                      01129 #define _MAXMEM 0X8000
                      01130 #define _ADC 10
                      01131 #define _ADC_RES 10
                      01132 #define _EEPROM 256
                      01133 #define RAM_BANKS 8
                      01134 #define _USART 1
                      01135 #define _USB 1
                      01136 #define _USB#RAM_START 1024
                      01137 #define _FLASH 1
                      01138 #define _CWRITE_BLOCK 32
                      01139 #define BANK0_START 96
                      01140 #define BANK0_END 255
                      01141 #define BANK1_START 256
                      01142 #define BANK1_END 511
                      01143 #define BANK2_START 512
                      01144 #define BANK2_END 767
                      01145 #define BANK3_START 768
                      01146 #define BANK3_END 1023
                      01147 #define BANK4_START 1024
                      01148 #define BANK4_END 1279
                      01149 #define BANK5_START 1280
                      01150 #define BANK5_END 1535
                      01151 #define BANK6_START 1536
                      01152 #define BANK6_END 1791
                      01153 #define BANK7_START 1792
                      01154 #define BANK7_END 2047
                      01155 #define bankA_Start 0
                      01156 #define bankA_End 95
                      01157 #define _SYSTEM_VARIABLE_COUNT 5
  00000000            01158 ram_bank = 0
                      01159 #define LCD#TYPE 0
                      01160 #define __INTERRUPTS_ENABLED 1
                      01161 #define __HIGH_INTERRUPTS_ENABLED 1
                      01173 #define clrw clrf WREG
                      01174 #define negw negf WREG
                      01175 #define skpc btfss STATUS,0
                      01176 #define skpnc btfsc STATUS,0
                      01177 #define clrc bcf STATUS,0
                      01178 #define setc bsf STATUS,0
                      01179 #define skpz btfss STATUS,2
                      01180 #define skpnz btfsc STATUS,2
                      01181 #define clrz bcf STATUS,2
                      01182 #define setz bsf STATUS,2
                      01183 MOVFW macro pVarin
                      01184     movf pVarin,W
                      01185     endm
                      01186 rlf macro pVarin,pDestination
                      01187     rlcf pVarin,pDestination
                      01188     endm
                      01189 rrf macro pVarin,pDestination
                      01190     rrcf pVarin,pDestination
                      01191     endm
                      01192 jump macro pLabel
                      01193     goto pLabel
                      01194     endm
                      01195 f@call macro pDestination
                      01196 if (pDestination < 1)
                      01197     call pDestination
                      01198 else
                      01199 if (pDestination > $)
                      01200     call pDestination
                      01201 else
                      01202 if (pDestination < ($ - 0X03FF))
                      01203     call pDestination
                      01204 else
                      01205     rcall pDestination
                      01206 endif
                      01207 endif
                      01208 endif
                      01209     endm
                      01210 f@jump macro pDestination
                      01211 ifdef watchdog_req
                      01212 if ($ == pDestination)
                      01213     clrwdt
                      01214 endif
                      01215 endif
                      01216 if (pDestination < 1)
                      01217     goto pDestination
                      01218 else
                      01219 if ((pDestination) > $)
                      01220     goto pDestination
                      01221 else
                      01222 if ((pDestination) < ($ - 0X03FF))
                      01223     goto pDestination
                      01224 else
                      01225     bra pDestination
                      01226 endif
                      01227 endif
                      01228 endif
                      01229     endm
                      01230 ifdef watchdog_req
                      01231     chk@slf macro pDestination
                      01232 if ($ == pDestination)
                      01233     clrwdt
                      01234 endif
                      01235     endm
                      01236 endif
                      01237 g@oto macro pDestination
                      01238 if (pDestination < 1)
                      01239     btfsc STATUS,OV
                      01240     goto pDestination
                      01241 else
                      01242 if (pDestination > $)
                      01243     btfsc STATUS,OV
                      01244     goto pDestination
                      01245 else
                      01246 if (pDestination < ($ - 127))
                      01247     btfsc STATUS,OV
                      01248     goto pDestination
                      01249 else
                      01250     bov pDestination
                      01251 endif
                      01252 endif
                      01253 endif
                      01254     endm
                      01255 go@to macro pDestination
                      01256 if (pDestination < 1)
                      01257     goto pDestination
                      01258 else
                      01259 if (pDestination > $)
                      01260     goto pDestination
                      01261 else
                      01262 if (pDestination < ($ - 0X03FF))
                      01263     goto pDestination
                      01264 else
                      01265     bra pDestination
                      01266 endif
                      01267 endif
                      01268 endif
                      01269     endm
                      01270 s@b macro pVarin
                      01271 if ((pVarin > bankA_End) & (pVarin < 0X0F80))
                      01272 if ((pVarin & 0X0F00) != (ram_bank << 8))
                      01273     movlb high (pVarin)
                      01274     ram_bank = (pVarin >> 8)
                      01275 endif
                      01276 endif
                      01277     endm
                      01278 r@b macro
                      01279 if(ram_bank != 0)
                      01280     movlb 0
                      01281     ram_bank = 0
                      01282 endif
                      01283     endm
                      01284 wreg_byte macro pByteOut
                      01285     movff WREG,pByteOut
                      01286     endm
                      01287 wreg_bit macro pVarOut,pBitout
                      01288     s@b pVarOut
                      01289     btfsc WREG,0
                      01290     bsf pVarOut,pBitout
                      01291     btfss WREG,0
                      01292     bcf pVarOut,pBitout
                      01293     r@b
                      01294     endm
                      01295 wreg_word macro pWordOut
                      01296     movff WREG,pWordOut
                      01297     movlw 0
                      01298     movff WREG,pWordOut+1
                      01299     endm
                      01300 wreg_dword macro pDwordOut
                      01301     movff WREG,pDwordOut
                      01302     movlw 0
                      01303     movff WREG,pDwordOut+3
                      01304     movff WREG,pDwordOut+2
                      01305     movff WREG,pDwordOut+1
                      01306     endm
                      01307 num_SFR macro pNumIn,pSFROut
                      01309     movlw pNumIn
                      01310     movwf pSFROut
                      01311     endm
                      01312 NUM16_SFR macro pNumIn,pSFROut
                      01314     movlw (pNumIn & 255)
                      01315     movwf pSFROut
                      01316     movlw ((pNumIn >> 8) & 255)
                      01317     movwf pSFROut + 1
                      01318     endm
                      01319 byte_wreg macro pByteIn
                      01320     movff pByteIn,WREG
                      01321     endm
                      01322 num_wreg macro pNumIn
                      01323     movlw (pNumIn & 255)
                      01324     endm
                      01325 num_byte macro pNumIn,pByteOut
                      01326     movlw (pNumIn & 255)
                      01327     movff WREG,pByteOut
                      01328     endm
                      01329 num_bit macro pNumIn,pVarOut,pBitout
                      01330     s@b pVarOut
                      01331 if((pNumIn & 1) == 1)
                      01332     bsf pVarOut,pBitout
                      01333 else
                      01334     bcf pVarOut,pBitout
                      01335 endif
                      01336     r@b
                      01337     endm
                      01338 num_word macro pNumIn,pWordOut
                      01339 ifdef _USELFSR
                      01340 if(pWordOut == FSR0L)
                      01341     lfsr 0,pNumIn
                      01342     exitm
                      01343 endif
                      01344 if(pWordOut == FSR1L)
                      01345     lfsr 1,pNumIn
                      01346     exitm
                      01347 endif
                      01348 if(pWordOut == FSR2L)
                      01349     lfsr 2,pNumIn
                      01350     exitm
                      01351 endif
                      01352 endif
                      01353     s@b pWordOut
                      01354     movlw (pNumIn & 255)
                      01355     movwf pWordOut
                      01356     s@b pWordOut+1
                      01357     movlw high (pNumIn)
                      01358     movwf pWordOut+1
                      01359     r@b
                      01360     endm
                      01361 num_dword macro pNumIn,pDwordOut
                      01362     s@b pDwordOut
                      01363     movlw low (pNumIn)
                      01364     movwf pDwordOut
                      01365     s@b pDwordOut+1
                      01366     movlw high (pNumIn)
                      01367     movwf pDwordOut+1
                      01368     s@b pDwordOut+2
                      01369     movlw ((pNumIn >> 16) & 255)
                      01370     movwf pDwordOut+2
                      01371     s@b pDwordOut+3
                      01372     movlw ((pNumIn >> 24) & 255)
                      01373     movwf pDwordOut+3
                      01374     r@b
                      01375     endm
                      01376 bit_wreg macro pVarin,pBitIn
                      01377     s@b pVarin
                      01378     clrw
                      01379     btfsc pVarin,pBitIn
                      01380     movlw 1
                      01381     r@b
                      01382     endm
                      01383 bit_byte macro pVarin,pBitIn,pByteOut
                      01384     s@b pVarin
                      01385     clrw
                      01386     btfsc pVarin,pBitIn
                      01387     movlw 1
                      01388     s@b pByteOut
                      01389     movwf pByteOut
                      01390     r@b
                      01391     endm
                      01392 bit_bit macro pVarin,pBitIn,pVarOut,pBitout
                      01393 if ((pVarin & 0X0F00) == (pVarOut & 0X0F00))
                      01394     s@b pVarin
                      01395     btfsc pVarin,pBitIn
                      01396     bsf pVarOut,pBitout
                      01397     btfss pVarin,pBitIn
                      01398     bcf pVarOut,pBitout
                      01399 else
                      01400 if ((pVarin <= bankA_End) | (pVarin >= 0X0F80))
                      01401     s@b pVarOut
                      01402     btfsc pVarin,pBitIn
                      01403     bsf pVarOut,pBitout
                      01404     btfss pVarin,pBitIn
                      01405     bcf pVarOut,pBitout
                      01406 else
                      01407 if ((pVarOut <= bankA_End) | (pVarOut >= 0X0F80))
                      01408     s@b pVarin
                      01409     btfsc pVarin,pBitIn
                      01410     bsf pVarOut,pBitout
                      01411     btfss pVarin,pBitIn
                      01412     bcf pVarOut,pBitout
                      01413 else
                      01414     s@b pVarin
                      01415     clrdc
                      01416     btfsc pVarin,pBitIn
                      01417     setdc
                      01418     s@b pVarOut
                      01419     skpndc
                      01420     bsf pVarOut,pBitout
                      01421     skpdc
                      01422     bcf pVarOut,pBitout
                      01423 endif
                      01424 endif
                      01425 endif
                      01426     r@b
                      01427     endm
                      01428 bit_word macro pVarin,pBitIn,pWordOut
                      01429     s@b pWordOut+1
                      01430     clrf pWordOut+1
                      01431     bit_byte pVarin,pBitIn,pWordOut
                      01432     endm
                      01433 bit_dword macro pVarin,pBitIn,pDwordOut
                      01434     s@b pDwordOut+3
                      01435     clrf pDwordOut+3
                      01436     s@b pDwordOut+2
                      01437     clrf pDwordOut+2
                      01438     s@b pDwordOut+1
                      01439     clrf pDwordOut+1
                      01440     bit_byte pVarin,pBitIn,pDwordOut
                      01441     endm
                      01442 word_wreg macro pWordIn
                      01443     byte_wreg pWordIn
                      01444     endm
                      01445 word_byte macro pWordIn,pByteOut
                      01446     byte_byte pWordIn,pByteOut
                      01447     endm
                      01448 word_bit macro pWordIn,pVarOut,pBitout
                      01449     byte_bit pWordIn, pVarOut, pBitout
                      01450     endm
                      01451 word_word macro pWordIn,pWordOut
                      01452     movff pWordIn+1,pWordOut+1
                      01453     movff pWordIn,pWordOut
                      01454     endm
                      01455 word_dword macro pWordIn,pDwordOut
                      01456     movlw 0
                      01457     movff WREG,pDwordOut+3
                      01458     movff WREG,pDwordOut+2
                      01459     word_word pWordIn,pDwordOut
                      01460     endm
                      01461 byte_byte macro pByteIn,pByteOut
                      01462     movff pByteIn,pByteOut
                      01463     endm
                      01464 byte_word macro pByteIn,pWordOut
                      01465     movlw 0
                      01466     movff WREG,pWordOut+1
                      01467     byte_byte pByteIn,pWordOut
                      01468     endm
                      01469 byte_dword macro pByteIn,pDwordOut
                      01470     movlw 0
                      01471     movff WREG,pDwordOut+3
                      01472     movff WREG,pDwordOut+2
                      01473     movff WREG,pDwordOut+1
                      01474     byte_byte pByteIn,pDwordOut
                      01475     endm
                      01476 byte_bit macro pByteIn,pVarOut,pBitout
                      01477 if ((pByteIn & 0X0F00) == (pVarOut & 0X0F00))
                      01478     s@b pByteIn
                      01479     btfsc pByteIn,0
                      01480     bsf pVarOut,pBitout
                      01481     btfss pByteIn,0
                      01482     bcf pVarOut,pBitout
                      01483 else
                      01484 if ((pByteIn <= bankA_End) | (pByteIn >= 0X0F80))
                      01485     s@b pVarOut
                      01486     btfsc pByteIn,0
                      01487     bsf pVarOut,pBitout
                      01488     btfss pByteIn,0
                      01489     bcf pVarOut,pBitout
                      01490 else
                      01491 if ((pVarOut <= bankA_End) | (pVarOut >= 0X0F80))
                      01492     s@b pByteIn
                      01493     btfsc pByteIn,0
                      01494     bsf pVarOut,pBitout
                      01495     btfss pByteIn,0
                      01496     bcf pVarOut,pBitout
                      01497 else
                      01498     s@b pByteIn
                      01499     rrf pByteIn,W
                      01500     s@b pVarOut
                      01501     skpnc
                      01502     bsf pVarOut,pBitout
                      01503     skpc
                      01504     bcf pVarOut,pBitout
                      01505 endif
                      01506 endif
                      01507 endif
                      01508     r@b
                      01509     endm
                      01510 dword_wreg macro pDwordIn
                      01511     byte_wreg pDwordIn
                      01512     endm
                      01513 dword_byte macro pDwordIn,pByteOut
                      01514     byte_byte pDwordIn,pByteOut
                      01515     endm
                      01516 dword_word macro pDwordIn,pWordOut
                      01517     movff pDwordIn+1,pWordOut+1
                      01518     movff pDwordIn,pWordOut
                      01519     endm
                      01520 dword_dword macro pDwordIn,pDwordOut
                      01521     movff pDwordIn+3,pDwordOut+3
                      01522     movff pDwordIn+2,pDwordOut+2
                      01523     movff pDwordIn+1,pDwordOut+1
                      01524     movff pDwordIn,pDwordOut
                      01525     endm
                      01526 dword_bit macro pDwordIn,pVarOut,pBitout
                      01527     byte_bit pDwordIn,pVarOut,pBitout
                      01528     endm
                      01529 num_float macro pNumIn,pFloatOut
                      01530     num_byte pNumIn,pFloatOut+3
                      01531     num_byte ((pNumIn >> 8) & 255),pFloatOut+2
                      01532     num_byte ((pNumIn >> 16) & 255),pFloatOut+1
                      01533     num_byte ((pNumIn >> 24) & 255),pFloatOut
                      01534     endm
                      01535 wreg_float macro pFloatOut
                      01536     call INT08@TOFL32
                      01537     movff PP_AARG,pFloatOut
                      01538     movff PP_AARGH,pFloatOut+1
                      01539     movff PP_AARGHH,pFloatOut+2
                      01540     movff PP_AARGHHH,pFloatOut+3
                      01541     endm
                      01542 bit_float macro pVarin,pBitIn,pFloatOut
                      01543     bit_wreg pVarin,pBitIn
                      01544     call INT08@TOFL32
                      01545     movff PP_AARG,pFloatOut
                      01546     movff PP_AARGH,pFloatOut+1
                      01547     movff PP_AARGHH,pFloatOut+2
                      01548     movff PP_AARGHHH,pFloatOut+3
                      01549     endm
                      01550 byte_float macro pByteIn,pFloatOut
                      01551     byte_wreg pByteIn
                      01552     call INT08@TOFL32
                      01553     movff PP_AARG,pFloatOut
                      01554     movff PP_AARGH,pFloatOut+1
                      01555     movff PP_AARGHH,pFloatOut+2
                      01556     movff PP_AARGHHH,pFloatOut+3
                      01557     endm
                      01558 word_float macro pWordIn,pFloatOut
                      01559     byte_byte pWordIn,PP_AARG
                      01560     byte_byte pWordIn+1,PP_AARGH
                      01561     call INT16@TOFL32
                      01562     movff PP_AARG,pFloatOut
                      01563     movff PP_AARGH,pFloatOut+1
                      01564     movff PP_AARGHH,pFloatOut+2
                      01565     movff PP_AARGHHH,pFloatOut+3
                      01566     endm
                      01567 dword_float macro pDwordIn,pFloatOut
                      01568     movff pDwordIn,PP_AARG
                      01569     movff pDwordIn+1,PP_AARGH
                      01570     movff pDwordIn+2,PP_AARGHH
                      01571     movff pDwordIn+3,PP_AARGHHH
                      01572     call INT32@TOFL32
                      01573     movff PP_AARG,pFloatOut
                      01574     movff PP_AARGH,pFloatOut+1
                      01575     movff PP_AARGHH,pFloatOut+2
                      01576     movff PP_AARGHHH,pFloatOut+3
                      01577     endm
                      01578 float_float macro pFloatIn,pFloatOut
                      01579     movff pFloatIn,pFloatOut
                      01580     movff pFloatIn+1,pFloatOut+1
                      01581     movff pFloatIn+2,pFloatOut+2
                      01582     movff pFloatIn+3,pFloatOut+3
                      01583     endm
                      01584 float_wreg macro pFloatIn
                      01585     float_float pFloatIn,PP_AARG
                      01586     call FL32@TOINT32
                      01587     endm
                      01588 float_bit macro pFloatIn,pVarOut,pBitout
                      01589     float_float pFloatIn,PP_AARG
                      01590     call FL32@TOINT32
                      01591     wreg_bit pVarOut,pBitout
                      01592     endm
                      01593 float_byte macro pFloatIn,pByteOut
                      01594     float_float pFloatIn,PP_AARG
                      01595     call FL32@TOINT32
                      01596     wreg_byte pByteOut
                      01597     endm
                      01598 float_word macro pFloatIn,pWordOut
                      01599     float_float pFloatIn,PP_AARG
                      01600     call FL32@TOINT32
                      01601     movff PP_AARGHHH,pWordOut
                      01602     movff PP_AARGHH,pWordOut+1
                      01603     endm
                      01604 float_dword macro pFloatIn,pDwordOut
                      01605     float_float pFloatIn,PP_AARG
                      01606     call FL32@TOINT32
                      01607     movff PP_AARGHHH,pDwordOut
                      01608     movff PP_AARGHH,pDwordOut+1
                      01609     movff PP_AARGH,pDwordOut+2
                      01610     movff PP_AARG,pDwordOut+3
                      01611     endm
                      01612 num_FSR0 macro pNumIn
                      01613     lfsr 0,pNumIn
                      01614     endm
                      01615 num_FSR1 macro pNumIn
                      01616     lfsr 1,pNumIn
                      01617     endm
                      01618 num_FSR2 macro pNumIn
                      01619     lfsr 2,pNumIn
                      01620     endm
                      01621 label_word macro pLabelIn,pWordOut
                      01622     movlw (pLabelIn & 255)
                      01623     movff WREG, pWordOut
                      01624     movlw ((pLabelIn >> 8) & 255)
                      01625     movff WREG, pWordOut+1
                      01626     endm
                      01627 label_pointer macro pLabelIn
                      01628     movlw (pLabelIn & 255)
                      01629     movwf TBLPTRL
                      01630     movlw ((pLabelIn >> 8) & 255)
                      01631     movwf TBLPTRH
                      01632     movlw ((pLabelIn >> 16) & 255)
                      01633     movwf TBLPTRU
                      01634     endm
                      01635 wreg_sword macro pWordOut
                      01636     movff WREG,pWordOut
                      01637     s@b pWordOut+1
                      01638     clrf pWordOut+1
                      01639     btfsc WREG,7
                      01640     decf pWordOut+1,F
                      01641     r@b
                      01642     endm
                      01643 wreg_sdword macro pDwordOut
                      01644     movff WREG,pDwordOut
                      01645     s@b pDwordOut
                      01646     movlw 0
                      01647     btfsc pDwordOut,7
                      01648     movlw 255
                      01649     movff WREG,pDwordOut+1
                      01650     movff WREG,pDwordOut+2
                      01651     movff WREG,pDwordOut+3
                      01652     r@b
                      01653     endm
                      01654 byte_sword macro pByteIn,pWordOut
                      01655     movff pByteIn,pWordOut
                      01656     s@b pByteIn
                      01657     movlw 0
                      01658     btfsc pByteIn,7
                      01659     movlw 255
                      01660     movff WREG,pWordOut+1
                      01661     r@b
                      01662     endm
                      01663 byte_sdword macro pByteIn,pDwordOut
                      01664     movff pByteIn,pDwordOut
                      01665     s@b pByteIn
                      01666     movlw 0
                      01667     btfsc pByteIn,7
                      01668     movlw 255
                      01669     movff WREG,pDwordOut+1
                      01670     movff WREG,pDwordOut+2
                      01671     movff WREG,pDwordOut+3
                      01672     r@b
                      01673     endm
                      01674 word_sdword macro pWordIn,pDwordOut
                      01675     movff pWordIn,pDwordOut
                      01676     movff pWordIn+1,pDwordOut+1
                      01677     s@b pWordIn+1
                      01678     movlw 0
                      01679     btfsc pWordIn+1,7
                      01680     movlw 255
                      01681     movff WREG,pDwordOut+2
                      01682     movff WREG,pDwordOut+3
                      01683     r@b
                      01684     endm
  00000000            01686 PP0 = 0
  00000001            01687 PP0H = 1
  00000002            01688 PP1 = 2
  00000003            01689 PP1H = 3
  00000004            01690 SP#P9 = 4
  00000005            01691 DataIn = 5
  0005                01692 variable DataIn#0=5,DataIn#1=6,DataIn#2=7,DataIn#3=8
  0009                01693 variable DataIn#4=9,DataIn#5=10,DataIn#6=11,DataIn#7=12
  000D                01694 variable DataIn#8=13,DataIn#9=14,DataIn#10=15,DataIn#11=16
  0011                01695 variable DataIn#12=17,DataIn#13=18,DataIn#14=19,DataIn#15=20
  0015                01696 variable DataIn#16=21,DataIn#17=22,DataIn#18=23,DataIn#19=24
  0019                01697 variable DataIn#20=25,DataIn#21=26,DataIn#22=27,DataIn#23=28
  001D                01698 variable DataIn#24=29,DataIn#25=30,DataIn#26=31,DataIn#27=32
  0021                01699 variable DataIn#28=33,DataIn#29=34
  00000023            01700 _I = 35
  00000024            01701 _T = 36
  00000400            01702 __EP0BO = 1024
  00000401            01703 __EP0BOH = 1025
  00000402            01704 __EP0BOHH = 1026
  00000403            01705 __EP0BOHHH = 1027
  00000404            01706 __EP0BI = 1028
  00000405            01707 __EP0BIH = 1029
  00000406            01708 __EP0BIHH = 1030
  00000407            01709 __EP0BIHHH = 1031
  00000408            01710 __EP1BO = 1032
  00000409            01711 __EP1BOH = 1033
  0000040A            01712 __EP1BOHH = 1034
  0000040B            01713 __EP1BOHHH = 1035
  0000040C            01714 __EP1BI = 1036
  0000040D            01715 __EP1BIH = 1037
  0000040E            01716 __EP1BIHH = 1038
  0000040F            01717 __EP1BIHHH = 1039
  00000410            01718 __USB_TEMP_VAR = 1040
  00000411            01719 __USB_TEMP_VARH = 1041
  00000412            01720 __PSRC = 1042
  00000413            01721 __PSRCH = 1043
  00000414            01722 __PDST = 1044
  00000415            01723 __PDSTH = 1045
  00000416            01724 __CTRL_TRF_STATE = 1046
  00000417            01725 __CTRL_TRF_SESSION_OWNER = 1047
  00000418            01726 __WCOUNT = 1048
  00000419            01727 __WCOUNTH = 1049
  0000041A            01728 __SHORT_PKT_STATUS = 1050
  0000041B            01729 __TRNIFCLEARED = 1051
  0000041C            01730 __BTRNIFCOUNT = 1052
  0000041D            01731 __USB_DEVICE_STATE = 1053
  0000041E            01732 __USB_ACTIVE_CFG = 1054
  0000041F            01733 __USB_ALT_INTF = 1055
  00000420            01734 __USB_STAT = 1056
  00000421            01735 __SETUPPKT = 1057
  0421                01736 variable __SETUPPKT#0=1057,__SETUPPKT#1=1058,__SETUPPKT#2=1059,__SETUPPKT#3=1060
  0425                01737 variable __SETUPPKT#4=1061,__SETUPPKT#5=1062,__SETUPPKT#6=1063,__SETUPPKT#7=1064
  00000429            01738 __CTRLTRFDATA = 1065
  0429                01739 variable __CTRLTRFDATA#0=1065,__CTRLTRFDATA#1=1066,__CTRLTRFDATA#2=1067,__CTRLTRFDATA#3=1068
  042D                01740 variable __CTRLTRFDATA#4=1069,__CTRLTRFDATA#5=1070,__CTRLTRFDATA#6=1071,__CTRLTRFDATA#7=1072
  00000431            01741 __IDLE_RATE = 1073
  00000432            01742 __ACTIVE_PROTOCOL = 1074
  00000433            01743 __HID_REPORT_IN = 1075
  00000474            01744 __HID_REPORT_OUT = 1140
  00000434            01745 __USBOUT_BUFFER = 1076
  00000434            01746 __USBOUT_BUFFER_D = 1076
  00000435            01747 __USBOUT_BUFFERH = 1077
  00000435            01748 __USBOUT_BUFFER_DH = 1077
  00000436            01749 __USBOUT_BUFFERHH = 1078
  00000436            01750 __USBOUT_BUFFER_DHH = 1078
  00000437            01751 __USBOUT_BUFFERHHH = 1079
  00000437            01752 __USBOUT_BUFFER_DHHH = 1079
  0434                01753 variable __USBOUT_BUFFER#0=1076,__USBOUT_BUFFER#1=1077,__USBOUT_BUFFER#2=1078,__USBOUT_BUFFER#3=1079
  0438                01754 variable __USBOUT_BUFFER#4=1080,__USBOUT_BUFFER#5=1081,__USBOUT_BUFFER#6=1082,__USBOUT_BUFFER#7=1083
  043C                01755 variable __USBOUT_BUFFER#8=1084,__USBOUT_BUFFER#9=1085,__USBOUT_BUFFER#10=1086,__USBOUT_BUFFER#11=1087
  0440                01756 variable __USBOUT_BUFFER#12=1088,__USBOUT_BUFFER#13=1089,__USBOUT_BUFFER#14=1090,__USBOUT_BUFFER#15=1091
  0444                01757 variable __USBOUT_BUFFER#16=1092,__USBOUT_BUFFER#17=1093,__USBOUT_BUFFER#18=1094,__USBOUT_BUFFER#19=1095
  0448                01758 variable __USBOUT_BUFFER#20=1096,__USBOUT_BUFFER#21=1097,__USBOUT_BUFFER#22=1098,__USBOUT_BUFFER#23=1099
  044C                01759 variable __USBOUT_BUFFER#24=1100,__USBOUT_BUFFER#25=1101,__USBOUT_BUFFER#26=1102,__USBOUT_BUFFER#27=1103
  0450                01760 variable __USBOUT_BUFFER#28=1104,__USBOUT_BUFFER#29=1105,__USBOUT_BUFFER#30=1106,__USBOUT_BUFFER#31=1107
  0454                01761 variable __USBOUT_BUFFER#32=1108,__USBOUT_BUFFER#33=1109,__USBOUT_BUFFER#34=1110,__USBOUT_BUFFER#35=1111
  0458                01762 variable __USBOUT_BUFFER#36=1112,__USBOUT_BUFFER#37=1113,__USBOUT_BUFFER#38=1114,__USBOUT_BUFFER#39=1115
  045C                01763 variable __USBOUT_BUFFER#40=1116,__USBOUT_BUFFER#41=1117,__USBOUT_BUFFER#42=1118,__USBOUT_BUFFER#43=1119
  0460                01764 variable __USBOUT_BUFFER#44=1120,__USBOUT_BUFFER#45=1121,__USBOUT_BUFFER#46=1122,__USBOUT_BUFFER#47=1123
  0464                01765 variable __USBOUT_BUFFER#48=1124,__USBOUT_BUFFER#49=1125,__USBOUT_BUFFER#50=1126,__USBOUT_BUFFER#51=1127
  0468                01766 variable __USBOUT_BUFFER#52=1128,__USBOUT_BUFFER#53=1129,__USBOUT_BUFFER#54=1130,__USBOUT_BUFFER#55=1131
  046C                01767 variable __USBOUT_BUFFER#56=1132,__USBOUT_BUFFER#57=1133,__USBOUT_BUFFER#58=1134,__USBOUT_BUFFER#59=1135
  0470                01768 variable __USBOUT_BUFFER#60=1136,__USBOUT_BUFFER#61=1137,__USBOUT_BUFFER#62=1138,__USBOUT_BUFFER#63=1139
  00000475            01769 __USBIN_BUFFER = 1141
  0475                01770 variable __USBIN_BUFFER#0=1141,__USBIN_BUFFER#1=1142,__USBIN_BUFFER#2=1143,__USBIN_BUFFER#3=1144
  0479                01771 variable __USBIN_BUFFER#4=1145,__USBIN_BUFFER#5=1146,__USBIN_BUFFER#6=1147,__USBIN_BUFFER#7=1148
  047D                01772 variable __USBIN_BUFFER#8=1149,__USBIN_BUFFER#9=1150,__USBIN_BUFFER#10=1151,__USBIN_BUFFER#11=1152
  0481                01773 variable __USBIN_BUFFER#12=1153,__USBIN_BUFFER#13=1154,__USBIN_BUFFER#14=1155,__USBIN_BUFFER#15=1156
  0485                01774 variable __USBIN_BUFFER#16=1157,__USBIN_BUFFER#17=1158,__USBIN_BUFFER#18=1159,__USBIN_BUFFER#19=1160
  0489                01775 variable __USBIN_BUFFER#20=1161,__USBIN_BUFFER#21=1162,__USBIN_BUFFER#22=1163,__USBIN_BUFFER#23=1164
  048D                01776 variable __USBIN_BUFFER#24=1165,__USBIN_BUFFER#25=1166,__USBIN_BUFFER#26=1167,__USBIN_BUFFER#27=1168
  0491                01777 variable __USBIN_BUFFER#28=1169,__USBIN_BUFFER#29=1170,__USBIN_BUFFER#30=1171,__USBIN_BUFFER#31=1172
  0495                01778 variable __USBIN_BUFFER#32=1173,__USBIN_BUFFER#33=1174,__USBIN_BUFFER#34=1175,__USBIN_BUFFER#35=1176
  0499                01779 variable __USBIN_BUFFER#36=1177,__USBIN_BUFFER#37=1178,__USBIN_BUFFER#38=1179,__USBIN_BUFFER#39=1180
  049D                01780 variable __USBIN_BUFFER#40=1181,__USBIN_BUFFER#41=1182,__USBIN_BUFFER#42=1183,__USBIN_BUFFER#43=1184
  04A1                01781 variable __USBIN_BUFFER#44=1185,__USBIN_BUFFER#45=1186,__USBIN_BUFFER#46=1187,__USBIN_BUFFER#47=1188
  04A5                01782 variable __USBIN_BUFFER#48=1189,__USBIN_BUFFER#49=1190,__USBIN_BUFFER#50=1191,__USBIN_BUFFER#51=1192
  04A9                01783 variable __USBIN_BUFFER#52=1193,__USBIN_BUFFER#53=1194,__USBIN_BUFFER#54=1195,__USBIN_BUFFER#55=1196
  04AD                01784 variable __USBIN_BUFFER#56=1197,__USBIN_BUFFER#57=1198,__USBIN_BUFFER#58=1199,__USBIN_BUFFER#59=1200
  04B1                01785 variable __USBIN_BUFFER#60=1201,__USBIN_BUFFER#61=1202,__USBIN_BUFFER#62=1203,__USBIN_BUFFER#63=1204
  00000025            01786 _High__Context_Store = 37
  0025                01787 variable _High__Context_Store#0=37,_High__Context_Store#1=38,_High__Context_Store#2=39
                      01788 #define SMP SSPSTAT,7
                      01789 #define CKE SSPSTAT,6
                      01790 #define DATA_ADDR SSPSTAT,5
                      01791 #define _P SSPSTAT,4
                      01792 #define _S SSPSTAT,3
                      01793 #define R_W SSPSTAT,2
                      01794 #define UA SSPSTAT,1
                      01795 #define BF SSPSTAT,0
                      01796 #define S_GCEN SSPCON2,7
                      01797 #define S_ACKSTAT SSPCON2,6
                      01798 #define S_ACKDT SSPCON2,5
                      01799 #define S_ACKEN SSPCON2,4
                      01800 #define S_RCEN SSPCON2,3
                      01801 #define S_PEN SSPCON2,2
                      01802 #define S_RSEN SSPCON2,1
                      01803 #define S_SEN SSPCON2,0
                      01804 #define SSPIF PIR1,3
                      01805 #define SSPIE PIE1,3
                      01806 #define GIE_GIEH INTCON,7
                      01807 #define PEIE_GIEL INTCON,6
                      01808 #define __XTAL 20
000000                01809 proton#code#start
000000                01810         org 0
000000 EF1E F000      01811         goto proton#main#start
000008                01812         org 8
000008 EF3C F000      01813         goto u
00000C                01814 __DELAY_MS_
00000C 6A03           01815         clrf 3,0
00000E                01816 __DELAY_MS_W_
00000E 6E02           01817         movwf 2,0
000010                01818 DLY@P
000010 0EFF           01819         movlw 255
000012 2602           01820         addwf 2,F,0
000014 2203           01821         addwfc 3,F,0
000016 D000           01822         bra $ + 2
000018 A0D8           01823         btfss 4056,0,0
00001A 0012           01824         return
00001C 0E03           01825         movlw 3
00001E 6E01           01826         movwf 1,0
000020 0EE5           01827         movlw 229
000022 D802           01828         rcall __DELAY_US_W_
000024 D7F5           01829         bra DLY@P
000026                01830 __DELAY_US_
000026 6A01           01831         clrf 1,0
000028                01832 __DELAY_US_W_
000028 0FFC           01833         addlw 252
00002A 6E00           01834         movwf 0,0
00002C 0000           01835         nop
00002E 6AE8           01836         clrf 4072,0
000030 D001           01837         bra $ + 4
000032 0600           01838         decf 0,F,0
000034 0000           01839         nop
000036 5A01           01840         subwfb 1,F,0
000038 E2FC           01841         bc $ - 6
00003A 0012           01842         return
00003C                01843 proton#main#start
00003C 0100           01844         movlb 0
  0000003E            01846 F2_SOF equ $ ; 4550.PRP
  0000003E            01847 F2_EOF equ $ ; 4550.PRP
  0000003E            01848 F1_SOF equ $ ; 4550.BAS
  0000003E            01849 F1_000003 equ $ ; IN [4550.BAS] OUTPUT PORTB.6
00003E 9C93           01850         bcf TRISB,6,0
  00000040            01851 F1_000004 equ $ ; IN [4550.BAS] OUTPUT PORTB.7
000040 9E93           01852         bcf TRISB,7,0
  00000042            01853 F1_000008 equ $ ; IN [4550.BAS] INPUT PORTB.0
000042 8093           01854         bsf TRISB,0,0
  00000044            01855 F1_000009 equ $ ; IN [4550.BAS] INPUT PORTB.1
000044 8293           01856         bsf TRISB,1,0
  00000046            01857 F1_000012 equ $ ; IN [4550.BAS] SSPADD = 49
000046 0E31           01858         movlw 49
000048 6EC8           01859         movwf SSPADD,0
  0000004A            01860 F1_000034 equ $ ; IN [4550.BAS] SSPCON2=0B000000000
00004A 6AC5           01861         clrf SSPCON2,0
  0000004C            01862 F1_000040 equ $ ; IN [4550.BAS] GIE_GIEH=1
00004C 8EF2           01863         bsf INTCON,7,0
  0000004E            01864 F1_000041 equ $ ; IN [4550.BAS] PEIE_GIEL=1
00004E 8CF2           01865         bsf INTCON,6,0
  00000050            01866 F1_000042 equ $ ; IN [4550.BAS] SSPIE=1
000050 869D           01867         bsf PIE1,3,0
  00000052            01868 F1_000047 equ $ ; IN [4550.BAS] SSPADD  = 0B10100000
000052 0EA0           01869         movlw 160
000054 6EC8           01870         movwf SSPADD,0
  00000056            01871 F1_000048 equ $ ; IN [4550.BAS] SSPSTAT = 0B00000000
000056 6AC7           01872         clrf SSPSTAT,0
  00000058            01873 F1_000049 equ $ ; IN [4550.BAS] SSPCON1 = 0B00111110
000058 0E3E           01874         movlw 62
00005A 6EC6           01875         movwf SSPCON1,0
  0000005C            01876 F1_000050 equ $ ; IN [4550.BAS] SSPCON2 = 0B00000000
00005C 6AC5           01877         clrf SSPCON2,0
  0000005E            01878 F1_000052 equ $ ; IN [4550.BAS] I=-1
00005E 0EFF           01879         movlw 255
000060 6E23           01880         movwf _I,0
  00000062            01881 F1_000054 equ $ ; IN [4550.BAS] DELAYMS 500
000062 0E01           01882         movlw 1
000064 6E03           01883         movwf PP1H,0
000066 0EF4           01884         movlw 244
                      01885         f@call __DELAY_MS_W_
00006A                01886 main
  0000006A            01887 F1_000056 equ $ ; IN [4550.BAS] DELAYMS 500
00006A 0E01           01888         movlw 1
00006C 6E03           01889         movwf PP1H,0
00006E 0EF4           01890         movlw 244
                      01891         f@call __DELAY_MS_W_
  00000072            01892 F1_000057 equ $ ; IN [4550.BAS] TOGGLE PORTB.7
000072 7E81           01893         btg PORTB,7,0
000074 9E93           01894         bcf TRISB,7,0
  00000076            01895 F1_000058 equ $ ; IN [4550.BAS] goto main
                      01896         f@jump main
000078                01897 u
  00000078            01898 F1_000061 equ $ ; IN [4550.BAS] CONTEXT SAVE
000078 0100           01899         movlb 0
00007A CFEA F025      01900         movff FSR0H,_High__Context_Store#0
00007E CFE9 F026      01901         movff FSR0L,_High__Context_Store#1
000082 C004 F027      01902         movff SP#P9,_High__Context_Store#2
  00000086            01903 F1_000062 equ $ ; IN [4550.BAS] TOGGLE PORTB.6
000086 7C81           01904         btg PORTB,6,0
000088 9C93           01905         bcf TRISB,6,0
  0000008A            01906 F1_000063 equ $ ; IN [4550.BAS] if SSPIF =1   THEN
00008A A69E           01907         btfss PIR1,3,0
                      01908         go@to BC@LL3
  00000090            01909 F1_000064 equ $ ; IN [4550.BAS] T= SSPBUF
000090 CFC9 F024      01910         movff SSPBUF,_T
  00000094            01911 F1_000065 equ $ ; IN [4550.BAS] if S=1 AND T <> SSPADD  THEN
000094 0E00           01912         movlw 0
000096 B6C7           01913         btfsc SSPSTAT,3,0
000098 0E01           01914         movlw 1
00009A 6E04           01915         movwf SP#P9,0
00009C 5024           01916         movf _T,W,0
00009E 5CC8           01917         subwf SSPADD,W,0
0000A0 A4D8           01918         btfss STATUS,2,0
0000A2 0E01           01919         movlw 1
0000A4 1604           01920         andwf SP#P9,F,0
0000A6 B4D8           01921         btfsc STATUS,2,0
                      01922         go@to BC@LL5
  000000AC            01923 F1_000066 equ $ ; IN [4550.BAS] INC I
0000AC 2A23           01924         incf _I,F,0
  000000AE            01925 F1_000067 equ $ ; IN [4550.BAS] DataIn[I] = T
0000AE EE00 F005      01926         lfsr 0,DataIn
0000B2 5023           01927         movf _I,W,0
0000B4 C024 FFEB      01928         movff _T,PLUSW0
  000000B8            01929 F1_000068 equ $ ; IN [4550.BAS] SSPIF =0
0000B8 969E           01930         bcf PIR1,3,0
  000000BA            01931 F1_000071 equ $ ; IN [4550.BAS] end if
0000BA                01932 BC@LL5
  000000BA            01933 F1_000072 equ $ ; IN [4550.BAS] if P=1 THEN P=0 :I=-1
0000BA A8C7           01934         btfss SSPSTAT,4,0
                      01935         go@to BC@LL7
0000C0 98C7           01936         bcf SSPSTAT,4,0
0000C2 0EFF           01937         movlw 255
0000C4 6E23           01938         movwf _I,0
0000C6                01939 BC@LL7
  000000C6            01940 F1_000073 equ $ ; IN [4550.BAS] SSPIF=0
0000C6 969E           01941         bcf PIR1,3,0
  000000C8            01942 F1_000074 equ $ ; IN [4550.BAS] end if
0000C8                01943 BC@LL3
  000000C8            01944 F1_000076 equ $ ; IN [4550.BAS] CONTEXT RESTORE
0000C8 C025 FFEA      01945         movff _High__Context_Store#0,FSR0H
0000CC C026 FFE9      01946         movff _High__Context_Store#1,FSR0L
0000D0 C027 F004      01947         movff _High__Context_Store#2,SP#P9
0000D4 0011           01948         retfie 1
  000000D6            01949 F1_EOF equ $ ; 4550.BAS
0000D6                01950 PB@LB8
0000D6 D7FF           01951         bra PB@LB8
0000D8                01953 __EOF
                      01965 __config config1l, PLLDIV_1_1 & CPUDIV_OSC1_PLL2_1 & USBDIV_1_1
300000 FCC0           01966 __config config1h, FOSC_HS_1
                      01970 __config config2l, PWRT_OFF_2 & BOR_ON_2 & BORV_3_2 & VREGEN_ON_2
300002 EEFF           01978 __config config2h, WDT_OFF_2 & WDTPS_128_2
300004 FDFF           01982 __config config3h, PBADEN_OFF_3
300006 FF9B           01990 __config config4l, LVP_OFF_4 & ICPRT_OFF_4 & XINST_OFF_4 & DEBUG_OFF_4
                      01997         end
MPASM  5.45                               A.S   8-25-2012  19:59:32         PAGE  2


SYMBOL TABLE
  LABEL                             VALUE 

ABDEN                             00000000
ABDOVF                            00000007
ACKDT                             00000005
ACKEN                             00000004
ACKSTAT                           00000006
ACQT0                             00000003
ACQT1                             00000004
ACQT2                             00000005
ACTVIE                            00000002
ACTVIF                            00000002
ADCON0                            00000FC2
ADCON1                            00000FC1
ADCON2                            00000FC0
ADCS0                             00000000
ADCS1                             00000001
ADCS2                             00000002
ADDEN                             00000003
ADDR0                             00000000
ADDR1                             00000001
ADDR2                             00000002
ADDR3                             00000003
ADDR4                             00000004
ADDR5                             00000005
ADDR6                             00000006
ADEN                              00000003
ADFM                              00000007
ADIE                              00000006
ADIF                              00000006
ADIP                              00000006
ADON                              00000000
ADRES                             00000FC3
ADRESH                            00000FC4
ADRESL                            00000FC3
ADRESLH                           00000FC4
AN0                               00000000
AN1                               00000001
AN2                               00000002
AN3                               00000003
AN4                               00000005
BANK0_END                         255
BANK0_START                       96
BANK1_END                         511
BANK1_START                       256
BANK2_END                         767
BANK2_START                       512
BANK3_END                         1023
BANK3_START                       768
BANK4_END                         1279
BANK4_START                       1024
BANK5_END                         1535
BANK5_START                       1280
BANK6_END                         1791
BANK6_START                       1536
BANK7_END                         2047
BANK7_START                       1792
BANKA_END                         95
BANKA_START                       0
BAUDCON                           00000FB8
BC@LL3                            000000C8
BC@LL5                            000000BA
BC@LL7                            000000C6
BCLIE                             00000003
BCLIF                             00000003
BCLIP                             00000003
BF                                SSPSTAT,0
BGST                              00000005
BIT_BIT                           
BIT_BYTE                          
BIT_DWORD                         
BIT_FLOAT                         
BIT_WORD                          
BIT_WREG                          
BOR                               00000000
BORV_0_2                          000000E7
BORV_1_2                          000000EF
BORV_2_2                          000000F7
BORV_3_2                          000000FF
BOR_OFF_2                         000000F9
BOR_ON_2                          000000FF
BOR_ON_ACTIVE_2                   000000FD
BOR_SOFT_2                        000000FB
BRG16                             00000003
BRGH                              00000002
BSR                               00000FE0
BTOEE                             00000004
BTOEF                             00000004
BTSEE                             00000007
BTSEF                             00000007
BYTE_BIT                          
BYTE_BYTE                         
BYTE_DWORD                        
BYTE_FLOAT                        
BYTE_SDWORD                       
BYTE_SWORD                        
BYTE_WORD                         
BYTE_WREG                         
C                                 00000000
C1INV                             00000004
C1OUT                             00000006
C2INV                             00000005
C2OUT                             00000007
CCP1                              00000002
CCP1AS                            00000FB6
CCP1CON                           00000FBD
CCP1DEL                           00000FB7
CCP1IE                            00000002
CCP1IF                            00000002
CCP1IP                            00000002
CCP1M0                            00000000
CCP1M1                            00000001
CCP1M2                            00000002
CCP1M3                            00000003
CCP2CON                           00000FBA
CCP2IE                            00000000
CCP2IF                            00000000
CCP2IP                            00000000
CCP2M0                            00000000
CCP2M1                            00000001
CCP2M2                            00000002
CCP2M3                            00000003
CCP2MX_OFF_3                      000000FE
CCP2MX_ON_3                       000000FF
CCPR1                             00000FBE
CCPR1H                            00000FBF
CCPR1L                            00000FBE
CCPR1LH                           00000FBF
CCPR2                             00000FBB
CCPR2H                            00000FBC
CCPR2L                            00000FBB
CCPR2LH                           00000FBC
CFGS                              00000006
CHS0                              00000002
CHS1                              00000003
CHS2                              00000004
CHS3                              00000005
CIS                               00000003
CK                                00000006
CK1SPP                            00000000
CK2SPP                            00000001
CKE                               SSPSTAT,6
CKP                               00000004
CLK1EN                            00000004
CLKCFG0                           00000006
CLKCFG1                           00000007
CLRC                              bcf STATUS,0
CLRW                              clrf WREG
CLRZ                              bcf STATUS,2
CM0                               00000000
CM1                               00000001
CM2                               00000002
CMCON                             00000FB4
CMIE                              00000006
CMIF                              00000006
CMIP                              00000006
CONFIG1H                          00300001
CONFIG1L                          00300000
CONFIG2H                          00300003
CONFIG2L                          00300002
CONFIG3H                          00300005
CONFIG4L                          00300006
CONFIG5H                          00300009
CONFIG5L                          00300008
CONFIG6H                          0030000B
CONFIG6L                          0030000A
CONFIG7H                          0030000D
CONFIG7L                          0030000C
CP0_OFF_5                         000000FF
CP0_ON_5                          000000FE
CP1_OFF_5                         000000FF
CP1_ON_5                          000000FD
CP2_OFF_5                         000000FF
CP2_ON_5                          000000FB
CP3_OFF_5                         000000FF
CP3_ON_5                          000000F7
CPB_OFF_5                         000000FF
CPB_ON_5                          000000BF
CPD_OFF_5                         000000FF
CPD_ON_5                          0000007F
CPUDIV_OSC1_PLL2_1                000000E7
CPUDIV_OSC2_PLL3_1                000000EF
CPUDIV_OSC3_PLL4_1                000000F7
CPUDIV_OSC4_PLL6_1                000000FF
CRC16EE                           00000002
CRC16EF                           00000002
CRC5EE                            00000001
CRC5EF                            00000001
CREN                              00000004
CSEN                              00000005
CSRC                              00000007
CVR0                              00000000
CVR1                              00000001
CVR2                              00000002
CVR3                              00000003
CVRCON                            00000FB5
CVREF                             00000004
CVREN                             00000007
CVROE                             00000006
CVRR                              00000005
CVRSS                             00000004
DATAIN                            00000005
DATAIN#0                          00000005
DATAIN#1                          00000006
DATAIN#10                         0000000F
DATAIN#11                         00000010
DATAIN#12                         00000011
DATAIN#13                         00000012
DATAIN#14                         00000013
DATAIN#15                         00000014
DATAIN#16                         00000015
DATAIN#17                         00000016
DATAIN#18                         00000017
DATAIN#19                         00000018
DATAIN#2                          00000007
DATAIN#20                         00000019
DATAIN#21                         0000001A
DATAIN#22                         0000001B
DATAIN#23                         0000001C
DATAIN#24                         0000001D
DATAIN#25                         0000001E
DATAIN#26                         0000001F
DATAIN#27                         00000020
DATAIN#28                         00000021
DATAIN#29                         00000022
DATAIN#3                          00000008
DATAIN#4                          00000009
DATAIN#5                          0000000A
DATAIN#6                          0000000B
DATAIN#7                          0000000C
DATAIN#8                          0000000D
DATAIN#9                          0000000E
DATA_ADDR                         SSPSTAT,5
DATA_ADDRESS                      00000005
DC                                00000001
DC1B0                             00000004
DC1B1                             00000005
DC2B0                             00000004
DC2B1                             00000005
DDRA                              00000F92
DDRB                              00000F93
DDRC                              00000F94
DDRD                              00000F95
DDRE                              00000F96
DEBUG_OFF_4                       000000FF
DEBUG_ON_4                        0000007F
DEVID1                            003FFFFE
DEVID2                            003FFFFF
DFN8EE                            00000003
DFN8EF                            00000003
DIR                               00000002
DLY@P                             00000010
DONE                              00000001
DWORD_BIT                         
DWORD_BYTE                        
DWORD_DWORD                       
DWORD_FLOAT                       
DWORD_WORD                        
DWORD_WREG                        
D_A                               00000005
EBTR0_OFF_7                       000000FF
EBTR0_ON_7                        000000FE
EBTR1_OFF_7                       000000FF
EBTR1_ON_7                        000000FD
EBTR2_OFF_7                       000000FF
EBTR2_ON_7                        000000FB
EBTR3_OFF_7                       000000FF
EBTR3_ON_7                        000000F7
EBTRB_OFF_7                       000000FF
EBTRB_ON_7                        000000BF
ECCP1AS                           00000FB6
ECCP1CON                          00000FBD
ECCP1DEL                          00000FB7
ECCPAS0                           00000004
ECCPAS1                           00000005
ECCPAS2                           00000006
ECCPASE                           00000007
EEADR                             00000FA9
EECON1                            00000FA6
EECON2                            00000FA7
EEDATA                            00000FA8
EEDATL                            00000FA8
EEIE                              00000004
EEIF                              00000004
EEIP                              00000004
EEPGD                             00000007
ENDP0                             00000003
ENDP1                             00000004
ENDP2                             00000005
ENDP3                             00000006
EPCONDIS                          00000003
EPHSHK                            00000004
EPINEN                            00000001
EPOUTEN                           00000002
EPSTALL                           00000000
F1_000003                         0000003E
F1_000004                         00000040
F1_000008                         00000042
F1_000009                         00000044
F1_000012                         00000046
F1_000034                         0000004A
F1_000040                         0000004C
F1_000041                         0000004E
F1_000042                         00000050
F1_000047                         00000052
F1_000048                         00000056
F1_000049                         00000058
F1_000050                         0000005C
F1_000052                         0000005E
F1_000054                         00000062
F1_000056                         0000006A
F1_000057                         00000072
F1_000058                         00000076
F1_000061                         00000078
F1_000062                         00000086
F1_000063                         0000008A
F1_000064                         00000090
F1_000065                         00000094
F1_000066                         000000AC
F1_000067                         000000AE
F1_000068                         000000B8
F1_000071                         000000BA
F1_000072                         000000BA
F1_000073                         000000C6
F1_000074                         000000C8
F1_000076                         000000C8
F1_EOF                            000000D6
F1_SOF                            0000003E
F2_EOF                            0000003E
F2_SOF                            0000003E
F@CALL                            
F@JUMP                            
FCMEN_OFF_1                       000000BF
FCMEN_ON_1                        000000FF
FERR                              00000002
FLOAT_BIT                         
FLOAT_BYTE                        
FLOAT_DWORD                       
FLOAT_FLOAT                       
FLOAT_WORD                        
FLOAT_WREG                        
FLTS                              00000002
FOSC_ECIO_EC_1                    000000F4
FOSC_ECPLLIO_EC_1                 000000F6
FOSC_ECPLL_EC_1                   000000F7
FOSC_EC_EC_1                      000000F5
FOSC_HSPLL_HS_1                   000000FE
FOSC_HS_1                         000000FC
FOSC_INTOSCIO_EC_1                000000F8
FOSC_INTOSC_EC_1                  000000F9
FOSC_INTOSC_HS_1                  000000FB
FOSC_INTOSC_XT_1                  000000FA
FOSC_XTPLL_XT_1                   000000F2
FOSC_XT_XT_1                      000000F0
FREE                              00000004
FRM0                              00000000
FRM1                              00000001
FRM10                             00000002
FRM2                              00000002
FRM3                              00000003
FRM4                              00000004
FRM5                              00000005
FRM6                              00000006
FRM7                              00000007
FRM8                              00000000
FRM9                              00000001
FSEN                              00000002
FSR0H                             00000FEA
FSR0L                             00000FE9
FSR0LH                            00000FEA
FSR1H                             00000FE2
FSR1L                             00000FE1
FSR1LH                            00000FE2
FSR2H                             00000FDA
FSR2L                             00000FD9
FSR2LH                            00000FDA
G@OTO                             
GCEN                              00000007
GIE                               00000007
GIEH                              00000007
GIEL                              00000006
GIE_GIEH                          INTCON,7
GO                                00000001
GO@TO                             
GO_DONE                           00000001
HLVDCON                           00000FD2
HLVDEN                            00000004
HLVDIE                            00000002
HLVDIF                            00000002
HLVDIN                            00000005
HLVDIP                            00000002
HLVDL0                            00000000
HLVDL1                            00000001
HLVDL2                            00000002
HLVDL3                            00000003
I2C_DAT                           00000005
I2C_READ                          00000002
I2C_START                         00000003
I2C_STOP                          00000004
ICPRT_OFF_4                       000000DF
ICPRT_ON_4                        000000FF
IDLEIE                            00000004
IDLEIF                            00000004
IDLEN                             00000007
IDLOC0                            00200000
IDLOC1                            00200001
IDLOC2                            00200002
IDLOC3                            00200003
IDLOC4                            00200004
IDLOC5                            00200005
IDLOC6                            00200006
IDLOC7                            00200007
IESO_OFF_1                        0000007F
IESO_ON_1                         000000FF
INDF0                             00000FEF
INDF1                             00000FE7
INDF2                             00000FDF
INT0                              00000000
INT0E                             00000004
INT0F                             00000001
INT0IE                            00000004
INT0IF                            00000001
INT1                              00000001
INT1E                             00000003
INT1F                             00000000
INT1IE                            00000003
INT1IF                            00000000
INT1IP                            00000006
INT1P                             00000006
INT2                              00000002
INT2E                             00000004
INT2F                             00000001
INT2IE                            00000004
INT2IF                            00000001
INT2IP                            00000007
INT2P                             00000007
INTCON                            00000FF2
INTCON2                           00000FF1
INTCON3                           00000FF0
INTEDG0                           00000006
INTEDG1                           00000005
INTEDG2                           00000004
INTSRC                            00000007
IOFS                              00000002
IPEN                              00000007
IPR1                              00000F9F
IPR2                              00000FA2
IRCF0                             00000004
IRCF1                             00000005
IRCF2                             00000006
IRVST                             00000005
IVRST                             00000005
JUMP                              
LABEL_POINTER                     
LABEL_WORD                        
LATA                              00000F89
LATA0                             00000000
LATA1                             00000001
LATA2                             00000002
LATA3                             00000003
LATA4                             00000004
LATA5                             00000005
LATA6                             00000006
LATB                              00000F8A
LATB0                             00000000
LATB1                             00000001
LATB2                             00000002
LATB3                             00000003
LATB4                             00000004
LATB5                             00000005
LATB6                             00000006
LATB7                             00000007
LATC                              00000F8B
LATC0                             00000000
LATC1                             00000001
LATC2                             00000002
LATC6                             00000006
LATC7                             00000007
LATD                              00000F8C
LATD0                             00000000
LATD1                             00000001
LATD2                             00000002
LATD3                             00000003
LATD4                             00000004
LATD5                             00000005
LATD6                             00000006
LATD7                             00000007
LATE                              00000F8D
LATE0                             00000000
LATE1                             00000001
LATE2                             00000002
LCD#TYPE                          0
LPT1OSC_OFF_3                     000000FB
LPT1OSC_ON_3                      000000FF
LVDCON                            00000FD2
LVDEN                             00000004
LVDIE                             00000002
LVDIF                             00000002
LVDIN                             00000005
LVDIP                             00000002
LVDL0                             00000000
LVDL1                             00000001
LVDL2                             00000002
LVDL3                             00000003
LVP_OFF_4                         000000FB
LVP_ON_4                          000000FF
LVV0                              00000000
LVV1                              00000001
LVV2                              00000002
LVV3                              00000003
MAIN                              0000006A
MCLRE_OFF_3                       0000007F
MCLRE_ON_3                        000000FF
MOVFW                             
N                                 00000004
NEGW                              negf WREG
NOT_A                             00000005
NOT_ADDRESS                       00000005
NOT_BOR                           00000000
NOT_DONE                          00000001
NOT_IPEN                          00000007
NOT_PD                            00000002
NOT_POR                           00000001
NOT_RBPU                          00000007
NOT_RI                            00000004
NOT_T1SYNC                        00000002
NOT_T3SYNC                        00000002
NOT_TO                            00000003
NOT_W                             00000002
NOT_WRITE                         00000002
NUM16_SFR                         
NUM_BIT                           
NUM_BYTE                          
NUM_DWORD                         
NUM_FLOAT                         
NUM_FSR0                          
NUM_FSR1                          
NUM_FSR2                          
NUM_SFR                           
NUM_WORD                          
NUM_WREG                          
OERR                              00000001
OESPP                             00000002
OSC2                              00000006
OSCCON                            00000FD3
OSCFIE                            00000007
OSCFIF                            00000007
OSCFIP                            00000007
OSCTUNE                           00000F9B
OSTS                              00000003
OV                                00000003
P1A                               00000002
P1M0                              00000006
P1M1                              00000007
PB@LB8                            000000D6
PBADEN_OFF_3                      000000FD
PBADEN_ON_3                       000000FF
PC                                00000FF9
PCFG0                             00000000
PCFG1                             00000001
PCFG2                             00000002
PCFG3                             00000003
PCL                               00000FF9
PCLATH                            00000FFA
PCLATU                            00000FFB
PD                                00000002
PDC0                              00000000
PDC1                              00000001
PDC2                              00000002
PDC3                              00000003
PDC4                              00000004
PDC5                              00000005
PDC6                              00000006
PEIE                              00000006
PEIE_GIEL                         INTCON,6
PEN                               00000002
PGC                               00000006
PGD                               00000007
PGM                               00000005
PIDEE                             00000000
PIDEF                             00000000
PIE1                              00000F9D
PIE2                              00000FA0
PIR1                              00000F9E
PIR2                              00000FA1
PKTDIS                            00000004
PLLDIV_10_1                       000000FE
PLLDIV_12_1                       000000FF
PLLDIV_1_1                        000000F8
PLLDIV_2_1                        000000F9
PLLDIV_3_1                        000000FA
PLLDIV_4_1                        000000FB
PLLDIV_5_1                        000000FC
PLLDIV_6_1                        000000FD
PLUSW0                            00000FEB
PLUSW1                            00000FE3
PLUSW2                            00000FDB
POR                               00000001
PORTA                             00000F80
PORTB                             00000F81
PORTC                             00000F82
PORTD                             00000F83
PORTE                             00000F84
POSTDEC0                          00000FED
POSTDEC1                          00000FE5
POSTDEC2                          00000FDD
POSTINC0                          00000FEE
POSTINC1                          00000FE6
POSTINC2                          00000FDE
PP0                               00000000
PP0H                              00000001
PP1                               00000002
PP1H                              00000003
PPB0                              00000000
PPB1                              00000001
PPBI                              00000001
PPBRST                            00000006
PP_ACKDT                          00000005
PP_ACKEN                          00000004
PP_ACTVIE                         00000002
PP_ACTVIF                         00000002
PP_ADON                           00000000
PP_CREN                           00000004
PP_EEPGD                          00000007
PP_EPSTALL                        00000000
PP_GO_DONE                        00000001
PP_IDLEIE                         00000004
PP_IDLEIF                         00000004
PP_OERR                           00000001
PP_PEN                            00000002
PP_PKTDIS                         00000004
PP_RCEN                           00000003
PP_RCIF                           00000005
PP_RD                             00000000
PP_RD0                            00000000
PP_RD1                            00000001
PP_RD16                           00000007
PP_RD2                            00000002
PP_RD3                            00000003
PP_RD4                            00000004
PP_RD5                            00000005
PP_RD6                            00000006
PP_RD7                            00000007
PP_RDPU                           00000007
PP_RDSPP                          00000007
PP_RESUME                         00000002
PP_RSEN                           00000001
PP_R_W                            00000002
PP_SE0                            00000005
PP_SEN                            00000000
PP_SENDB                          00000003
PP_SOFIE                          00000006
PP_SOFIF                          00000006
PP_STALLIE                        00000005
PP_STALLIF                        00000005
PP_SUSPND                         00000001
PP_T2CKPS0                        00000000
PP_T2CKPS1                        00000001
PP_T3CCP1                         00000003
PP_T3CCP2                         00000006
PP_TMR2ON                         00000002
PP_TRNIE                          00000003
PP_TRNIF                          00000003
PP_TXIF                           00000004
PP_UERRIE                         00000001
PP_UERRIF                         00000001
PP_URSTIE                         00000000
PP_URSTIF                         00000000
PP_USBEN                          00000003
PP_WR                             00000001
PP_WREN                           00000002
PP_WRERR                          00000003
PP_WRSPP                          00000006
PR2                               00000FCB
PREINC0                           00000FEC
PREINC1                           00000FE4
PREINC2                           00000FDC
PRODH                             00000FF4
PRODL                             00000FF3
PRODLH                            00000FF4
PROTON#CODE#START                 00000000
PROTON#MAIN#START                 0000003C
PRSEN                             00000007
PSA                               00000003
PSSAC0                            00000002
PSSAC1                            00000003
PSSBD0                            00000000
PSSBD1                            00000001
PWRT_OFF_2                        000000FF
PWRT_ON_2                         000000FE
R@B                               
RA0                               00000000
RA1                               00000001
RA2                               00000002
RA3                               00000003
RA4                               00000004
RA5                               00000005
RA6                               00000006
RAM_BANK                          00000000
RAM_BANKS                         8
RB0                               00000000
RB1                               00000001
RB2                               00000002
RB3                               00000003
RB4                               00000004
RB5                               00000005
RB6                               00000006
RB7                               00000007
RBIE                              00000003
RBIF                              00000000
RBIP                              00000000
RBPU                              00000007
RC0                               00000000
RC1                               00000001
RC2                               00000002
RC4                               00000004
RC5                               00000005
RC6                               00000006
RC7                               00000007
RCEN                              00000003
RCIDL                             00000006
RCIE                              00000005
RCIF                              00000005
RCIP                              00000005
RCMT                              00000006
RCON                              00000FD0
RCREG                             00000FAE
RCSTA                             00000FAB
RD                                00000000
RD0                               00000000
RD1                               00000001
RD16                              00000007
RD2                               00000002
RD3                               00000003
RD4                               00000004
RD5                               00000005
RD6                               00000006
RD7                               00000007
RDPU                              00000007
RDSPP                             00000007
RE0                               00000000
RE1                               00000001
RE2                               00000002
RE3                               00000003
READ_WRITE                        00000002
RESUME                            00000002
RI                                00000004
RLF                               
RRF                               
RSEN                              00000001
RX                                00000007
RX9                               00000006
RX9D                              00000000
RXDTP                             00000005
R_W                               SSPSTAT,2
S@B                               
SBOREN                            00000006
SCKP                              00000004
SCS0                              00000000
SCS1                              00000001
SE0                               00000005
SEN                               00000000
SENDB                             00000003
SETC                              bsf STATUS,0
SETZ                              bsf STATUS,2
SKPC                              btfss STATUS,0
SKPNC                             btfsc STATUS,0
SKPNZ                             btfsc STATUS,2
SKPZ                              btfss STATUS,2
SMP                               SSPSTAT,7
SOFIE                             00000006
SOFIF                             00000006
SP#P9                             00000004
SPBRG                             00000FAF
SPBRGH                            00000FB0
SPEN                              00000007
SPP0                              00000000
SPP1                              00000001
SPP2                              00000002
SPP3                              00000003
SPP4                              00000004
SPP5                              00000005
SPP6                              00000006
SPP7                              00000007
SPPBUSY                           00000004
SPPCFG                            00000F63
SPPCON                            00000F65
SPPDATA                           00000F62
SPPEN                             00000000
SPPEPS                            00000F64
SPPIE                             00000007
SPPIF                             00000007
SPPIP                             00000007
SPPOWN                            00000001
SREN                              00000005
SSPADD                            00000FC8
SSPBUF                            00000FC9
SSPCON1                           00000FC6
SSPCON2                           00000FC5
SSPEN                             00000005
SSPIE                             PIE1,3
SSPIF                             PIR1,3
SSPIP                             00000003
SSPM0                             00000000
SSPM1                             00000001
SSPM2                             00000002
SSPM3                             00000003
SSPOV                             00000006
SSPSTAT                           00000FC7
STALLIE                           00000005
STALLIF                           00000005
STATUS                            00000FD8
STKFUL                            00000007
STKPTR                            00000FFC
STKPTR0                           00000000
STKPTR1                           00000001
STKPTR2                           00000002
STKPTR3                           00000003
STKPTR4                           00000004
STKUNF                            00000006
STVREN_OFF_4                      000000FE
STVREN_ON_4                       000000FF
SUSPND                            00000001
SWDTE                             00000000
SWDTEN                            00000000
SYNC                              00000004
S_ACKDT                           SSPCON2,5
S_ACKEN                           SSPCON2,4
S_ACKSTAT                         SSPCON2,6
S_GCEN                            SSPCON2,7
S_PEN                             SSPCON2,2
S_RCEN                            SSPCON2,3
S_RSEN                            SSPCON2,1
S_SEN                             SSPCON2,0
T08BIT                            00000006
T0CKI                             00000004
T0CON                             00000FD5
T0CS                              00000005
T0IE                              00000005
T0IF                              00000002
T0IP                              00000002
T0PS0                             00000000
T0PS1                             00000001
T0PS2                             00000002
T0SE                              00000004
T13CKI                            00000000
T1CKPS0                           00000004
T1CKPS1                           00000005
T1CON                             00000FCD
T1OSCEN                           00000003
T1OSI                             00000001
T1OSO                             00000000
T1RUN                             00000006
T1SYNC                            00000002
T2CKPS0                           00000000
T2CKPS1                           00000001
T2CON                             00000FCA
T2OUTPS0                          00000003
T2OUTPS1                          00000004
T2OUTPS2                          00000005
T2OUTPS3                          00000006
T3CCP1                            00000003
T3CCP2                            00000006
T3CKPS0                           00000004
T3CKPS1                           00000005
T3CON                             00000FB1
T3NSYNC                           00000002
T3SYNC                            00000002
TABLAT                            00000FF5
TBLPTRH                           00000FF7
TBLPTRL                           00000FF6
TBLPTRLH                          00000FF7
TBLPTRLHH                         00000FF8
TBLPTRU                           00000FF8
TMR0H                             00000FD7
TMR0IE                            00000005
TMR0IF                            00000002
TMR0IP                            00000002
TMR0L                             00000FD6
TMR0LH                            00000FD7
TMR0ON                            00000007
TMR1CS                            00000001
TMR1H                             00000FCF
TMR1IE                            00000000
TMR1IF                            00000000
TMR1IP                            00000000
TMR1L                             00000FCE
TMR1LH                            00000FCF
TMR1ON                            00000000
TMR2                              00000FCC
TMR2IE                            00000001
TMR2IF                            00000001
TMR2IP                            00000001
TMR2ON                            00000002
TMR3CS                            00000001
TMR3H                             00000FB3
TMR3IE                            00000001
TMR3IF                            00000001
TMR3IP                            00000001
TMR3L                             00000FB2
TMR3LH                            00000FB3
TMR3ON                            00000000
TO                                00000003
TOS                               00000FFD
TOSH                              00000FFE
TOSL                              00000FFD
TOSLH                             00000FFE
TOSU                              00000FFF
TRISA                             00000F92
TRISA0                            00000000
TRISA1                            00000001
TRISA2                            00000002
TRISA3                            00000003
TRISA4                            00000004
TRISA5                            00000005
TRISA6                            00000006
TRISB                             00000F93
TRISB0                            00000000
TRISB1                            00000001
TRISB2                            00000002
TRISB3                            00000003
TRISB4                            00000004
TRISB5                            00000005
TRISB6                            00000006
TRISB7                            00000007
TRISC                             00000F94
TRISC0                            00000000
TRISC1                            00000001
TRISC2                            00000002
TRISC6                            00000006
TRISC7                            00000007
TRISD                             00000F95
TRISD0                            00000000
TRISD1                            00000001
TRISD2                            00000002
TRISD3                            00000003
TRISD4                            00000004
TRISD5                            00000005
TRISD6                            00000006
TRISD7                            00000007
TRISE                             00000F96
TRISE0                            00000000
TRISE1                            00000001
TRISE2                            00000002
TRMT                              00000001
TRNIE                             00000003
TRNIF                             00000003
TUN0                              00000000
TUN1                              00000001
TUN2                              00000002
TUN3                              00000003
TUN4                              00000004
TX                                00000006
TX9                               00000006
TX9D                              00000000
TXCKP                             00000004
TXEN                              00000005
TXIE                              00000004
TXIF                              00000004
TXIP                              00000004
TXREG                             00000FAD
TXSTA                             00000FAC
U                                 00000078
UA                                SSPSTAT,1
UADDR                             00000F6E
UCFG                              00000F6F
UCON                              00000F6D
UEIE                              00000F6B
UEIR                              00000F6A
UEP0                              00000F70
UEP1                              00000F71
UEP10                             00000F7A
UEP11                             00000F7B
UEP12                             00000F7C
UEP13                             00000F7D
UEP14                             00000F7E
UEP15                             00000F7F
UEP2                              00000F72
UEP3                              00000F73
UEP4                              00000F74
UEP5                              00000F75
UEP6                              00000F76
UEP7                              00000F77
UEP8                              00000F78
UEP9                              00000F79
UERRIE                            00000001
UERRIF                            00000001
UFRM                              00000F66
UFRMH                             00000F67
UFRML                             00000F66
UFRMLH                            00000F67
UIE                               00000F69
UIR                               00000F68
UOEMON                            00000006
UPUEN                             00000004
URSTIE                            00000000
URSTIF                            00000000
USBDIV_1_1                        000000DF
USBDIV_2_1                        000000FF
USBEN                             00000003
USBIE                             00000005
USBIF                             00000005
USBIP                             00000005
USTAT                             00000F6C
UTEYE                             00000007
UTRDIS                            00000003
VCFG0                             00000004
VCFG1                             00000005
VDIRMAG                           00000007
VREFM                             00000002
VREFP                             00000003
VREGEN_OFF_2                      000000DF
VREGEN_ON_2                       000000FF
WCOL                              00000007
WDTCON                            00000FD1
WDTPS_1024_2                      000000F5
WDTPS_128_2                       000000EF
WDTPS_16384_2                     000000FD
WDTPS_16_2                        000000E9
WDTPS_1_2                         000000E1
WDTPS_2048_2                      000000F7
WDTPS_256_2                       000000F1
WDTPS_2_2                         000000E3
WDTPS_32768_2                     000000FF
WDTPS_32_2                        000000EB
WDTPS_4096_2                      000000F9
WDTPS_4_2                         000000E5
WDTPS_512_2                       000000F3
WDTPS_64_2                        000000ED
WDTPS_8192_2                      000000FB
WDTPS_8_2                         000000E7
WDT_OFF_2                         000000FE
WDT_ON_2                          000000FF
WORD_BIT                          
WORD_BYTE                         
WORD_DWORD                        
WORD_FLOAT                        
WORD_SDWORD                       
WORD_WORD                         
WORD_WREG                         
WR                                00000001
WREG                              00000FE8
WREG_BIT                          
WREG_BYTE                         
WREG_DWORD                        
WREG_FLOAT                        
WREG_SDWORD                       
WREG_SWORD                        
WREG_WORD                         
WREN                              00000002
WRERR                             00000003
WRSPP                             00000006
WRT0_OFF_6                        000000FF
WRT0_ON_6                         000000FE
WRT1_OFF_6                        000000FF
WRT1_ON_6                         000000FD
WRT2_OFF_6                        000000FF
WRT2_ON_6                         000000FB
WRT3_OFF_6                        000000FF
WRT3_ON_6                         000000F7
WRTB_OFF_6                        000000FF
WRTB_ON_6                         000000BF
WRTC_OFF_6                        000000FF
WRTC_ON_6                         000000DF
WRTD_OFF_6                        000000FF
WRTD_ON_6                         0000007F
WS0                               00000000
WS1                               00000001
WS2                               00000002
WS3                               00000003
WUE                               00000001
XINST_OFF_4                       000000BF
XINST_ON_4                        000000FF
XTAL                              20
Z                                 00000002
_ADC                              10
_ADC_RES                          10
_CORE                             16
_CWRITE_BLOCK                     32
_EEPROM                           256
_FLASH                            1
_HIGH__CONTEXT_STORE              00000025
_HIGH__CONTEXT_STORE#0            00000025
_HIGH__CONTEXT_STORE#1            00000026
_HIGH__CONTEXT_STORE#2            00000027
_I                                00000023
_I2C_SCL_PIN                      00000001
_I2C_SCL_PORT                     00000F93
_I2C_SDA_PIN                      00000000
_I2C_SDA_PORT                     00000F93
_MAXMEM                           0X8000
_MAXRAM                           1024
_P                                SSPSTAT,4
_RAM_END                          2048
_S                                SSPSTAT,3
_SYSTEM_VARIABLE_COUNT            5
_T                                00000024
_USART                            1
_USB                              1
_USB#RAM_START                    1024
__18F4550                         1
__ACTIVE_PROTOCOL                 00000432
__BTRNIFCOUNT                     0000041C
__CTRLTRFDATA                     00000429
__CTRLTRFDATA#0                   00000429
__CTRLTRFDATA#1                   0000042A
__CTRLTRFDATA#2                   0000042B
__CTRLTRFDATA#3                   0000042C
__CTRLTRFDATA#4                   0000042D
__CTRLTRFDATA#5                   0000042E
__CTRLTRFDATA#6                   0000042F
__CTRLTRFDATA#7                   00000430
__CTRL_TRF_SESSION_OWNER          00000417
__CTRL_TRF_STATE                  00000416
__DELAY_MS_                       0000000C
__DELAY_MS_W_                     0000000E
__DELAY_US_                       00000026
__DELAY_US_W_                     00000028
__EOF                             000000D8
__EP0BI                           00000404
__EP0BIH                          00000405
__EP0BIHH                         00000406
__EP0BIHHH                        00000407
__EP0BO                           00000400
__EP0BOH                          00000401
__EP0BOHH                         00000402
__EP0BOHHH                        00000403
__EP1BI                           0000040C
__EP1BIH                          0000040D
__EP1BIHH                         0000040E
__EP1BIHHH                        0000040F
__EP1BO                           00000408
__EP1BOH                          00000409
__EP1BOHH                         0000040A
__EP1BOHHH                        0000040B
__HID_REPORT_IN                   00000433
__HID_REPORT_OUT                  00000474
__HIGH_INTERRUPTS_ENABLED         1
__IDLE_RATE                       00000431
__IDLOC0                          00200000
__IDLOC1                          00200001
__IDLOC2                          00200002
__IDLOC3                          00200003
__IDLOC4                          00200004
__IDLOC5                          00200005
__IDLOC6                          00200006
__IDLOC7                          00200007
__INTERRUPTS_ENABLED              1
__PDST                            00000414
__PDSTH                           00000415
__PSRC                            00000412
__PSRCH                           00000413
__SETUPPKT                        00000421
__SETUPPKT#0                      00000421
__SETUPPKT#1                      00000422
__SETUPPKT#2                      00000423
__SETUPPKT#3                      00000424
__SETUPPKT#4                      00000425
__SETUPPKT#5                      00000426
__SETUPPKT#6                      00000427
__SETUPPKT#7                      00000428
__SHORT_PKT_STATUS                0000041A
__TRNIFCLEARED                    0000041B
__USBIN_BUFFER                    00000475
__USBIN_BUFFER#0                  00000475
__USBIN_BUFFER#1                  00000476
__USBIN_BUFFER#10                 0000047F
__USBIN_BUFFER#11                 00000480
__USBIN_BUFFER#12                 00000481
__USBIN_BUFFER#13                 00000482
__USBIN_BUFFER#14                 00000483
__USBIN_BUFFER#15                 00000484
__USBIN_BUFFER#16                 00000485
__USBIN_BUFFER#17                 00000486
__USBIN_BUFFER#18                 00000487
__USBIN_BUFFER#19                 00000488
__USBIN_BUFFER#2                  00000477
__USBIN_BUFFER#20                 00000489
__USBIN_BUFFER#21                 0000048A
__USBIN_BUFFER#22                 0000048B
__USBIN_BUFFER#23                 0000048C
__USBIN_BUFFER#24                 0000048D
__USBIN_BUFFER#25                 0000048E
__USBIN_BUFFER#26                 0000048F
__USBIN_BUFFER#27                 00000490
__USBIN_BUFFER#28                 00000491
__USBIN_BUFFER#29                 00000492
__USBIN_BUFFER#3                  00000478
__USBIN_BUFFER#30                 00000493
__USBIN_BUFFER#31                 00000494
__USBIN_BUFFER#32                 00000495
__USBIN_BUFFER#33                 00000496
__USBIN_BUFFER#34                 00000497
__USBIN_BUFFER#35                 00000498
__USBIN_BUFFER#36                 00000499
__USBIN_BUFFER#37                 0000049A
__USBIN_BUFFER#38                 0000049B
__USBIN_BUFFER#39                 0000049C
__USBIN_BUFFER#4                  00000479
__USBIN_BUFFER#40                 0000049D
__USBIN_BUFFER#41                 0000049E
__USBIN_BUFFER#42                 0000049F
__USBIN_BUFFER#43                 000004A0
__USBIN_BUFFER#44                 000004A1
__USBIN_BUFFER#45                 000004A2
__USBIN_BUFFER#46                 000004A3
__USBIN_BUFFER#47                 000004A4
__USBIN_BUFFER#48                 000004A5
__USBIN_BUFFER#49                 000004A6
__USBIN_BUFFER#5                  0000047A
__USBIN_BUFFER#50                 000004A7
__USBIN_BUFFER#51                 000004A8
__USBIN_BUFFER#52                 000004A9
__USBIN_BUFFER#53                 000004AA
__USBIN_BUFFER#54                 000004AB
__USBIN_BUFFER#55                 000004AC
__USBIN_BUFFER#56                 000004AD
__USBIN_BUFFER#57                 000004AE
__USBIN_BUFFER#58                 000004AF
__USBIN_BUFFER#59                 000004B0
__USBIN_BUFFER#6                  0000047B
__USBIN_BUFFER#60                 000004B1
__USBIN_BUFFER#61                 000004B2
__USBIN_BUFFER#62                 000004B3
__USBIN_BUFFER#63                 000004B4
__USBIN_BUFFER#7                  0000047C
__USBIN_BUFFER#8                  0000047D
__USBIN_BUFFER#9                  0000047E
__USBOUT_BUFFER                   00000434
__USBOUT_BUFFER#0                 00000434
__USBOUT_BUFFER#1                 00000435
__USBOUT_BUFFER#10                0000043E
__USBOUT_BUFFER#11                0000043F
__USBOUT_BUFFER#12                00000440
__USBOUT_BUFFER#13                00000441
__USBOUT_BUFFER#14                00000442
__USBOUT_BUFFER#15                00000443
__USBOUT_BUFFER#16                00000444
__USBOUT_BUFFER#17                00000445
__USBOUT_BUFFER#18                00000446
__USBOUT_BUFFER#19                00000447
__USBOUT_BUFFER#2                 00000436
__USBOUT_BUFFER#20                00000448
__USBOUT_BUFFER#21                00000449
__USBOUT_BUFFER#22                0000044A
__USBOUT_BUFFER#23                0000044B
__USBOUT_BUFFER#24                0000044C
__USBOUT_BUFFER#25                0000044D
__USBOUT_BUFFER#26                0000044E
__USBOUT_BUFFER#27                0000044F
__USBOUT_BUFFER#28                00000450
__USBOUT_BUFFER#29                00000451
__USBOUT_BUFFER#3                 00000437
__USBOUT_BUFFER#30                00000452
__USBOUT_BUFFER#31                00000453
__USBOUT_BUFFER#32                00000454
__USBOUT_BUFFER#33                00000455
__USBOUT_BUFFER#34                00000456
__USBOUT_BUFFER#35                00000457
__USBOUT_BUFFER#36                00000458
__USBOUT_BUFFER#37                00000459
__USBOUT_BUFFER#38                0000045A
__USBOUT_BUFFER#39                0000045B
__USBOUT_BUFFER#4                 00000438
__USBOUT_BUFFER#40                0000045C
__USBOUT_BUFFER#41                0000045D
__USBOUT_BUFFER#42                0000045E
__USBOUT_BUFFER#43                0000045F
__USBOUT_BUFFER#44                00000460
__USBOUT_BUFFER#45                00000461
__USBOUT_BUFFER#46                00000462
__USBOUT_BUFFER#47                00000463
__USBOUT_BUFFER#48                00000464
__USBOUT_BUFFER#49                00000465
__USBOUT_BUFFER#5                 00000439
__USBOUT_BUFFER#50                00000466
__USBOUT_BUFFER#51                00000467
__USBOUT_BUFFER#52                00000468
__USBOUT_BUFFER#53                00000469
__USBOUT_BUFFER#54                0000046A
__USBOUT_BUFFER#55                0000046B
__USBOUT_BUFFER#56                0000046C
__USBOUT_BUFFER#57                0000046D
__USBOUT_BUFFER#58                0000046E
__USBOUT_BUFFER#59                0000046F
__USBOUT_BUFFER#6                 0000043A
__USBOUT_BUFFER#60                00000470
__USBOUT_BUFFER#61                00000471
__USBOUT_BUFFER#62                00000472
__USBOUT_BUFFER#63                00000473
__USBOUT_BUFFER#7                 0000043B
__USBOUT_BUFFER#8                 0000043C
__USBOUT_BUFFER#9                 0000043D
__USBOUT_BUFFERH                  00000435
__USBOUT_BUFFERHH                 00000436
__USBOUT_BUFFERHHH                00000437
__USBOUT_BUFFER_D                 00000434
__USBOUT_BUFFER_DH                00000435
__USBOUT_BUFFER_DHH               00000436
__USBOUT_BUFFER_DHHH              00000437
__USB_ACTIVE_CFG                  0000041E
__USB_ALT_INTF                    0000041F
__USB_DEVICE_STATE                0000041D
__USB_STAT                        00000420
__USB_TEMP_VAR                    00000410
__USB_TEMP_VARH                   00000411
__WCOUNT                          00000418
__WCOUNTH                         00000419
__XTAL                            20


MEMORY USAGE MAP ('X' = USED,  '-' = UNUSED)

0000 : XXXX----XXXXXXXX XXXXXXXXXXXXXXXX XXXXXXXXXXXXXXXX XXXXXXXXXXXXXXXX
0040 : XXXXXXXXXXXXXXXX XXXXXXXXXXXXXXXX XXXXXXXXXXXXXXXX XXXXXXXXXXXXXXXX
0080 : XXXXXXXXXXXXXXXX XXXXXXXXXXXXXXXX XXXXXXXXXXXXXXXX XXXXXXXXXXXXXXXX
00C0 : XXXXXXXXXXXXXXXX XXXXXXXX-------- ---------------- ----------------
0000 : XXXXXXXX-------- ---------------- ---------------- ----------------

ALL OTHER MEMORY BLOCKS UNUSED.

PROGRAM MEMORY BYTES USED:   220
PROGRAM MEMORY BYTES FREE: 32548


ERRORS   :     0
WARNINGS :     0 REPORTED,   125 SUPPRESSED
MESSAGES :     1 REPORTED,     1 SUPPRESSED


